(dp1
S'TM_0828'
p2
ccopy_reg
_reconstructor
p3
(cpandas.core.frame
DataFrame
p4
c__builtin__
object
p5
NtRp6
g3
(cpandas.core.internals
BlockManager
p7
g5
NtRp8
((lp9
cnumpy.core.multiarray
_reconstruct
p10
(cpandas.core.index
Index
p11
(I0
tS'b'
tRp12
((I1
(I2
tcnumpy
dtype
p13
(S'O8'
I0
I1
tRp14
(I3
S'|'
NNNI-1
I-1
I63
tbI00
(lp15
S'ACT'
p16
aS'MG'
p17
at(Nttbag10
(g11
(I0
tS'b'
tRp18
((I1
(I2
tg14
I00
(lp19
g16
ag17
at(Nttba(lp20
g10
(cnumpy
ndarray
p21
(I0
tS'b'
tRp22
(I1
(I2
I2
tg14
I00
(lp23
F1
aF0
aF0
aF1
atba(lp24
g10
(g11
(I0
tS'b'
tRp25
((I1
(I2
tg14
I00
(lp26
g16
ag17
at(NttbatbbsS'TM_0721'
p27
g3
(g4
g5
NtRp28
g3
(g7
g5
NtRp29
((lp30
g10
(g11
(I0
tS'b'
tRp31
((I1
(I2
tg14
I00
(lp32
S'SO4'
p33
aS'U5P'
p34
at(Nttbag10
(g11
(I0
tS'b'
tRp35
((I1
(I2
tg14
I00
(lp36
g33
ag34
at(Nttba(lp37
g10
(g21
(I0
tS'b'
tRp38
(I1
(I2
I2
tg14
I00
(lp39
F1
aF0
aF0
aF1
atba(lp40
g10
(g11
(I0
tS'b'
tRp41
((I1
(I2
tg14
I00
(lp42
g33
ag34
at(NttbatbbsS'TM_1272'
p43
g3
(g4
g5
NtRp44
g3
(g7
g5
NtRp45
((lp46
g10
(g11
(I0
tS'b'
tRp47
((I1
(I4
tg14
I00
(lp48
g16
aS'MPD'
p49
aS'GSU'
p50
aS'ZN'
p51
at(Nttbag10
(g11
(I0
tS'b'
tRp52
((I1
(I4
tg14
I00
(lp53
g16
ag49
ag50
ag51
at(Nttba(lp54
g10
(g21
(I0
tS'b'
tRp55
(I1
(I4
I4
tg14
I00
(lp56
F1
aF0.25
aF0.034883699999999997
aF0
aF0.25
aF1
aF0.0523256
aF0
aF0.034883699999999997
aF0.0523256
aF1
aF0
aF0
aF0
aF0
aF1
atba(lp57
g10
(g11
(I0
tS'b'
tRp58
((I1
(I4
tg14
I00
(lp59
g16
ag49
ag50
ag51
at(NttbatbbsS'TM_0332'
p60
g3
(g4
g5
NtRp61
g3
(g7
g5
NtRp62
((lp63
g10
(g11
(I0
tS'b'
tRp64
((I1
(I1
tg14
I00
(lp65
S'EDO'
p66
at(Nttbag10
(g11
(I0
tS'b'
tRp67
((I1
(I1
tg14
I00
(lp68
g66
at(Nttba(lp69
g10
(g21
(I0
tS'b'
tRp70
(I1
(I1
I1
tg14
I00
(lp71
F1
atba(lp72
g10
(g11
(I0
tS'b'
tRp73
((I1
(I1
tg14
I00
(lp74
g66
at(NttbatbbsS'TM_0031'
p75
g3
(g4
g5
NtRp76
g3
(g7
g5
NtRp77
((lp78
g10
(g11
(I0
tS'b'
tRp79
((I1
(I3
tg14
I00
(lp80
S'BGC'
p81
aS'CA'
p82
aS'CBI'
p83
at(Nttbag10
(g11
(I0
tS'b'
tRp84
((I1
(I3
tg14
I00
(lp85
g81
ag82
ag83
at(Nttba(lp86
g10
(g21
(I0
tS'b'
tRp87
(I1
(I3
I3
tg14
I00
(lp88
F1
aF0
aF0.78723399999999999
aF0
aF1
aF0
aF0.78723399999999999
aF0
aF1
atba(lp89
g10
(g11
(I0
tS'b'
tRp90
((I1
(I3
tg14
I00
(lp91
g81
ag82
ag83
at(NttbatbbsS'TM_0234'
p92
g3
(g4
g5
NtRp93
g3
(g7
g5
NtRp94
((lp95
g10
(g11
(I0
tS'b'
tRp96
((I1
(I5
tg14
I00
(lp97
S'CL'
p98
aS'GOL'
p99
aS'NH4'
p100
aS'PO3'
p101
aS'PO4'
p102
at(Nttbag10
(g11
(I0
tS'b'
tRp103
((I1
(I5
tg14
I00
(lp104
g98
ag99
ag100
ag101
ag102
at(Nttba(lp105
g10
(g21
(I0
tS'b'
tRp106
(I1
(I5
I5
tg14
I00
(lp107
F1
aF0
aF0
aF0
aF0
aF0
aF1
aF0
aF0
aF0
aF0
aF0
aF0
aF0
aF0
aF0
aF0
aF0
aF1
aF1
aF0
aF0
aF0
aF1
aF1
atba(lp108
g10
(g11
(I0
tS'b'
tRp109
((I1
(I5
tg14
I00
(lp110
g98
ag99
ag100
ag101
ag102
at(NttbatbbsS'TM_0236'
p111
g3
(g4
g5
NtRp112
g3
(g7
g5
NtRp113
((lp114
g10
(g11
(I0
tS'b'
tRp115
((I1
(I2
tg14
I00
(lp116
S'ADP'
p117
ag99
at(Nttbag10
(g11
(I0
tS'b'
tRp118
((I1
(I2
tg14
I00
(lp119
g117
ag99
at(Nttba(lp120
g10
(g21
(I0
tS'b'
tRp121
(I1
(I2
I2
tg14
I00
(lp122
F1
aF0.046979899999999998
aF0.046979899999999998
aF1
atba(lp123
g10
(g11
(I0
tS'b'
tRp124
((I1
(I2
tg14
I00
(lp125
g117
ag99
at(NttbatbbsS'TM_0237'
p126
g3
(g4
g5
NtRp127
g3
(g7
g5
NtRp128
((lp129
g10
(g11
(I0
tS'b'
tRp130
((I1
(I2
tg14
I00
(lp131
g117
ag17
at(Nttbag10
(g11
(I0
tS'b'
tRp132
((I1
(I2
tg14
I00
(lp133
g117
ag17
at(Nttba(lp134
g10
(g21
(I0
tS'b'
tRp135
(I1
(I2
I2
tg14
I00
(lp136
F1
aF0
aF0
aF1
atba(lp137
g10
(g11
(I0
tS'b'
tRp138
((I1
(I2
tg14
I00
(lp139
g117
ag17
at(NttbatbbsS'TM_1559'
p140
g3
(g4
g5
NtRp141
g3
(g7
g5
NtRp142
((lp143
g10
(g11
(I0
tS'b'
tRp144
((I1
(I4
tg14
I00
(lp145
g16
ag99
aS'CIT'
p146
aS'PGO'
p147
at(Nttbag10
(g11
(I0
tS'b'
tRp148
((I1
(I4
tg14
I00
(lp149
g16
ag99
ag146
ag147
at(Nttba(lp150
g10
(g21
(I0
tS'b'
tRp151
(I1
(I4
I4
tg14
I00
(lp152
F1
aF0.29999999999999999
aF0.23999999999999999
aF0.33333299999999999
aF0.29999999999999999
aF1
aF0.28000000000000003
aF0.85714299999999999
aF0.23999999999999999
aF0.28000000000000003
aF1
aF0.23999999999999999
aF0.33333299999999999
aF0.85714299999999999
aF0.23999999999999999
aF1
atba(lp153
g10
(g11
(I0
tS'b'
tRp154
((I1
(I4
tg14
I00
(lp155
g16
ag99
ag146
ag147
at(NttbatbbsS'TM_1834'
p156
g3
(g4
g5
NtRp157
g3
(g7
g5
NtRp158
((lp159
g10
(g11
(I0
tS'b'
tRp160
((I1
(I3
tg14
I00
(lp161
S'CSW'
p162
aS'MAL'
p163
aS'NAD'
p164
at(Nttbag10
(g11
(I0
tS'b'
tRp165
((I1
(I3
tg14
I00
(lp166
g162
ag163
ag164
at(Nttba(lp167
g10
(g21
(I0
tS'b'
tRp168
(I1
(I3
I3
tg14
I00
(lp169
F1
aF0.064935099999999996
aF0.058252400000000003
aF0.064935099999999996
aF1
aF0.14999999999999999
aF0.058252400000000003
aF0.14999999999999999
aF1
atba(lp170
g10
(g11
(I0
tS'b'
tRp171
((I1
(I3
tg14
I00
(lp172
g162
ag163
ag164
at(NttbatbbsS'TM_1185'
p173
g3
(g4
g5
NtRp174
g3
(g7
g5
NtRp175
((lp176
g10
(g11
(I0
tS'b'
tRp177
((I1
(I2
tg14
I00
(lp178
g98
ag33
at(Nttbag10
(g11
(I0
tS'b'
tRp179
((I1
(I2
tg14
I00
(lp180
g98
ag33
at(Nttba(lp181
g10
(g21
(I0
tS'b'
tRp182
(I1
(I2
I2
tg14
I00
(lp183
F1
aF0
aF0
aF1
atba(lp184
g10
(g11
(I0
tS'b'
tRp185
((I1
(I2
tg14
I00
(lp186
g98
ag33
at(NttbatbbsS'TM_0752'
p187
g3
(g4
g5
NtRp188
g3
(g7
g5
NtRp189
((lp190
g10
(g11
(I0
tS'b'
tRp191
((I1
(I1
tg14
I00
(lp192
g164
at(Nttbag10
(g11
(I0
tS'b'
tRp193
((I1
(I1
tg14
I00
(lp194
g164
at(Nttba(lp195
g10
(g21
(I0
tS'b'
tRp196
(I1
(I1
I1
tg14
I00
(lp197
F1
atba(lp198
g10
(g11
(I0
tS'b'
tRp199
((I1
(I1
tg14
I00
(lp200
g164
at(NttbatbbsS'TM_0831'
p201
g3
(g4
g5
NtRp202
g3
(g7
g5
NtRp203
((lp204
g10
(g11
(I0
tS'b'
tRp205
((I1
(I4
tg14
I00
(lp206
g146
ag98
ag49
aS'PLP'
p207
at(Nttbag10
(g11
(I0
tS'b'
tRp208
((I1
(I4
tg14
I00
(lp209
g146
ag98
ag49
ag207
at(Nttba(lp210
g10
(g21
(I0
tS'b'
tRp211
(I1
(I4
I4
tg14
I00
(lp212
F1
aF0
aF0.35999999999999999
aF0.061946899999999999
aF0
aF1
aF0
aF0
aF0.35999999999999999
aF0
aF1
aF0.029703
aF0.061946899999999999
aF0
aF0.029703
aF1
atba(lp213
g10
(g11
(I0
tS'b'
tRp214
((I1
(I4
tg14
I00
(lp215
g146
ag98
ag49
ag207
at(NttbatbbsS'TM_0689'
p216
g3
(g4
g5
NtRp217
g3
(g7
g5
NtRp218
((lp219
g10
(g11
(I0
tS'b'
tRp220
((I1
(I4
tg14
I00
(lp221
S'3PG'
p222
aS'ANP'
p223
ag17
ag33
at(Nttbag10
(g11
(I0
tS'b'
tRp224
((I1
(I4
tg14
I00
(lp225
g222
ag223
ag17
ag33
at(Nttba(lp226
g10
(g21
(I0
tS'b'
tRp227
(I1
(I4
I4
tg14
I00
(lp228
F1
aF0.157303
aF0
aF0
aF0.157303
aF1
aF0
aF0.0056818199999999998
aF0
aF0
aF1
aF0
aF0
aF0.0056818199999999998
aF0
aF1
atba(lp229
g10
(g11
(I0
tS'b'
tRp230
((I1
(I4
tg14
I00
(lp231
g222
ag223
ag17
ag33
at(NttbatbbsS'TM_0688'
p232
g3
(g4
g5
NtRp233
g3
(g7
g5
NtRp234
((lp235
g10
(g11
(I0
tS'b'
tRp236
((I1
(I2
tg14
I00
(lp237
g164
ag33
at(Nttbag10
(g11
(I0
tS'b'
tRp238
((I1
(I2
tg14
I00
(lp239
g164
ag33
at(Nttba(lp240
g10
(g21
(I0
tS'b'
tRp241
(I1
(I2
I2
tg14
I00
(lp242
F1
aF0.0053191499999999999
aF0.0053191499999999999
aF1
atba(lp243
g10
(g11
(I0
tS'b'
tRp244
((I1
(I2
tg14
I00
(lp245
g164
ag33
at(NttbatbbsS'TM_0290'
p246
g3
(g4
g5
NtRp247
g3
(g7
g5
NtRp248
((lp249
g10
(g11
(I0
tS'b'
tRp250
((I1
(I1
tg14
I00
(lp251
S'FLC'
p252
at(Nttbag10
(g11
(I0
tS'b'
tRp253
((I1
(I1
tg14
I00
(lp254
g252
at(Nttba(lp255
g10
(g21
(I0
tS'b'
tRp256
(I1
(I1
I1
tg14
I00
(lp257
F1
atba(lp258
g10
(g11
(I0
tS'b'
tRp259
((I1
(I1
tg14
I00
(lp260
g252
at(NttbatbbsS'TM_1038'
p261
g3
(g4
g5
NtRp262
g3
(g7
g5
NtRp263
((lp264
g10
(g11
(I0
tS'b'
tRp265
((I1
(I3
tg14
I00
(lp266
S'ACY'
p267
ag99
ag102
at(Nttbag10
(g11
(I0
tS'b'
tRp268
((I1
(I3
tg14
I00
(lp269
g267
ag99
ag102
at(Nttba(lp270
g10
(g21
(I0
tS'b'
tRp271
(I1
(I3
I3
tg14
I00
(lp272
F1
aF0.29999999999999999
aF0
aF0.29999999999999999
aF1
aF0
aF0
aF0
aF1
atba(lp273
g10
(g11
(I0
tS'b'
tRp274
((I1
(I3
tg14
I00
(lp275
g267
ag99
ag102
at(NttbatbbsS'TM_1037'
p276
g3
(g4
g5
NtRp277
g3
(g7
g5
NtRp278
((lp279
g10
(g11
(I0
tS'b'
tRp280
((I1
(I2
tg14
I00
(lp281
g98
ag49
at(Nttbag10
(g11
(I0
tS'b'
tRp282
((I1
(I2
tg14
I00
(lp283
g98
ag49
at(Nttba(lp284
g10
(g21
(I0
tS'b'
tRp285
(I1
(I2
I2
tg14
I00
(lp286
F1
aF0
aF0
aF1
atba(lp287
g10
(g11
(I0
tS'b'
tRp288
((I1
(I2
tg14
I00
(lp289
g98
ag49
at(NttbatbbsS'TM_1036'
p290
g3
(g4
g5
NtRp291
g3
(g7
g5
NtRp292
((lp293
g10
(g11
(I0
tS'b'
tRp294
((I1
(I7
tg14
I00
(lp295
S'0VR'
p296
ag98
ag33
ag99
aS'IOD'
p297
ag102
aS'PI'
p298
at(Nttbag10
(g11
(I0
tS'b'
tRp299
((I1
(I7
tg14
I00
(lp300
g296
ag98
ag33
ag99
ag297
ag102
ag298
at(Nttba(lp301
g10
(g21
(I0
tS'b'
tRp302
(I1
(I7
I7
tg14
I00
(lp303
F1
aF0
aF0
aF0.070707099999999995
aF0
aF0.050505099999999997
aF0.050505099999999997
aF0
aF1
aF0
aF0
aF0
aF0
aF0
aF0
aF0
aF1
aF0
aF0
aF0
aF0
aF0.070707099999999995
aF0
aF0
aF1
aF0
aF0
aF0
aF0
aF0
aF0
aF0
aF1
aF0
aF0
aF0.050505099999999997
aF0
aF0
aF0
aF0
aF1
aF1
aF0.050505099999999997
aF0
aF0
aF0
aF0
aF1
aF1
atba(lp304
g10
(g11
(I0
tS'b'
tRp305
((I1
(I7
tg14
I00
(lp306
g296
ag98
ag33
ag99
ag297
ag102
ag298
at(NttbatbbsS'TM_1521'
p307
g3
(g4
g5
NtRp308
g3
(g7
g5
NtRp309
((lp310
g10
(g11
(I0
tS'b'
tRp311
((I1
(I4
tg14
I00
(lp312
g82
aS'MCL'
p313
ag99
ag33
at(Nttbag10
(g11
(I0
tS'b'
tRp314
((I1
(I4
tg14
I00
(lp315
g82
ag313
ag99
ag33
at(Nttba(lp316
g10
(g21
(I0
tS'b'
tRp317
(I1
(I4
I4
tg14
I00
(lp318
F1
aF0
aF0
aF0
aF0
aF1
aF0.11627899999999999
aF0
aF0
aF0.11627899999999999
aF1
aF0
aF0
aF0
aF0
aF1
atba(lp319
g10
(g11
(I0
tS'b'
tRp320
((I1
(I4
tg14
I00
(lp321
g82
ag313
ag99
ag33
at(NttbatbbsS'TM_1520'
p322
g3
(g4
g5
NtRp323
g3
(g7
g5
NtRp324
((lp325
g10
(g11
(I0
tS'b'
tRp326
((I1
(I4
tg14
I00
(lp327
g16
ag66
ag164
aS'PG4'
p328
at(Nttbag10
(g11
(I0
tS'b'
tRp329
((I1
(I4
tg14
I00
(lp330
g16
ag66
ag164
ag328
at(Nttba(lp331
g10
(g21
(I0
tS'b'
tRp332
(I1
(I4
I4
tg14
I00
(lp333
F1
aF0.42857099999999998
aF0.032786900000000001
aF0.20000000000000001
aF0.42857099999999998
aF1
aF0.0218579
aF0.33333299999999999
aF0.032786900000000001
aF0.0218579
aF1
aF0.054054100000000001
aF0.20000000000000001
aF0.33333299999999999
aF0.054054100000000001
aF1
atba(lp334
g10
(g11
(I0
tS'b'
tRp335
((I1
(I4
tg14
I00
(lp336
g16
ag66
ag164
ag328
at(NttbatbbsS'TM_1139'
p337
g3
(g4
g5
NtRp338
g3
(g7
g5
NtRp339
((lp340
g10
(g11
(I0
tS'b'
tRp341
((I1
(I1
tg14
I00
(lp342
S'ATP'
p343
at(Nttbag10
(g11
(I0
tS'b'
tRp344
((I1
(I1
tg14
I00
(lp345
g343
at(Nttba(lp346
g10
(g21
(I0
tS'b'
tRp347
(I1
(I1
I1
tg14
I00
(lp348
F1
atba(lp349
g10
(g11
(I0
tS'b'
tRp350
((I1
(I1
tg14
I00
(lp351
g343
at(NttbatbbsS'TM_1524'
p352
g3
(g4
g5
NtRp353
g3
(g7
g5
NtRp354
((lp355
g10
(g11
(I0
tS'b'
tRp356
((I1
(I1
tg14
I00
(lp357
S'BR'
p358
at(Nttbag10
(g11
(I0
tS'b'
tRp359
((I1
(I1
tg14
I00
(lp360
g358
at(Nttba(lp361
g10
(g21
(I0
tS'b'
tRp362
(I1
(I1
I1
tg14
I00
(lp363
F1
atba(lp364
g10
(g11
(I0
tS'b'
tRp365
((I1
(I1
tg14
I00
(lp366
g358
at(NttbatbbsS'TM_1643'
p367
g3
(g4
g5
NtRp368
g3
(g7
g5
NtRp369
((lp370
g10
(g11
(I0
tS'b'
tRp371
((I1
(I1
tg14
I00
(lp372
g164
at(Nttbag10
(g11
(I0
tS'b'
tRp373
((I1
(I1
tg14
I00
(lp374
g164
at(Nttba(lp375
g10
(g21
(I0
tS'b'
tRp376
(I1
(I1
I1
tg14
I00
(lp377
F1
atba(lp378
g10
(g11
(I0
tS'b'
tRp379
((I1
(I1
tg14
I00
(lp380
g164
at(NttbatbbsS'TM_1641'
p381
g3
(g4
g5
NtRp382
g3
(g7
g5
NtRp383
((lp384
g10
(g11
(I0
tS'b'
tRp385
((I1
(I3
tg14
I00
(lp386
S'MTX'
p387
aS'NDP'
p388
ag33
at(Nttbag10
(g11
(I0
tS'b'
tRp389
((I1
(I3
tg14
I00
(lp390
g387
ag388
ag33
at(Nttba(lp391
g10
(g21
(I0
tS'b'
tRp392
(I1
(I3
I3
tg14
I00
(lp393
F1
aF0.27118599999999998
aF0.0064102600000000001
aF0.27118599999999998
aF1
aF0.0043668099999999996
aF0.0064102600000000001
aF0.0043668099999999996
aF1
atba(lp394
g10
(g11
(I0
tS'b'
tRp395
((I1
(I3
tg14
I00
(lp396
g387
ag388
ag33
at(NttbatbbsS'TM_1644'
p397
g3
(g4
g5
NtRp398
g3
(g7
g5
NtRp399
((lp400
g10
(g11
(I0
tS'b'
tRp401
((I1
(I3
tg14
I00
(lp402
g49
aS'SF4'
p403
ag51
at(Nttbag10
(g11
(I0
tS'b'
tRp404
((I1
(I3
tg14
I00
(lp405
g49
ag403
ag51
at(Nttba(lp406
g10
(g21
(I0
tS'b'
tRp407
(I1
(I3
I3
tg14
I00
(lp408
F1
aF0
aF0
aF0
aF1
aF0
aF0
aF0
aF1
atba(lp409
g10
(g11
(I0
tS'b'
tRp410
((I1
(I3
tg14
I00
(lp411
g49
ag403
ag51
at(NttbatbbsS'TM_0061'
p412
g3
(g4
g5
NtRp413
g3
(g7
g5
NtRp414
((lp415
g10
(g11
(I0
tS'b'
tRp416
((I1
(I2
tg14
I00
(lp417
g81
ag82
at(Nttbag10
(g11
(I0
tS'b'
tRp418
((I1
(I2
tg14
I00
(lp419
g81
ag82
at(Nttba(lp420
g10
(g21
(I0
tS'b'
tRp421
(I1
(I2
I2
tg14
I00
(lp422
F1
aF0
aF0
aF1
atba(lp423
g10
(g11
(I0
tS'b'
tRp424
((I1
(I2
tg14
I00
(lp425
g81
ag82
at(NttbatbbsS'TM_1351'
p426
g3
(g4
g5
NtRp427
g3
(g7
g5
NtRp428
((lp429
g10
(g11
(I0
tS'b'
tRp430
((I1
(I2
tg14
I00
(lp431
g98
ag99
at(Nttbag10
(g11
(I0
tS'b'
tRp432
((I1
(I2
tg14
I00
(lp433
g98
ag99
at(Nttba(lp434
g10
(g21
(I0
tS'b'
tRp435
(I1
(I2
I2
tg14
I00
(lp436
F1
aF0
aF0
aF1
atba(lp437
g10
(g11
(I0
tS'b'
tRp438
((I1
(I2
tg14
I00
(lp439
g98
ag99
at(NttbatbbsS'TM_0067'
p440
g3
(g4
g5
NtRp441
g3
(g7
g5
NtRp442
((lp443
g10
(g11
(I0
tS'b'
tRp444
((I1
(I2
tg14
I00
(lp445
g82
aS'NI'
p446
at(Nttbag10
(g11
(I0
tS'b'
tRp447
((I1
(I2
tg14
I00
(lp448
g82
ag446
at(Nttba(lp449
g10
(g21
(I0
tS'b'
tRp450
(I1
(I2
I2
tg14
I00
(lp451
F1
aF0
aF0
aF1
atba(lp452
g10
(g11
(I0
tS'b'
tRp453
((I1
(I2
tg14
I00
(lp454
g82
ag446
at(NttbatbbsS'TM_0066'
p455
g3
(g4
g5
NtRp456
g3
(g7
g5
NtRp457
((lp458
g10
(g11
(I0
tS'b'
tRp459
((I1
(I2
tg14
I00
(lp460
S'PYR'
p461
ag33
at(Nttbag10
(g11
(I0
tS'b'
tRp462
((I1
(I2
tg14
I00
(lp463
g461
ag33
at(Nttba(lp464
g10
(g21
(I0
tS'b'
tRp465
(I1
(I2
I2
tg14
I00
(lp466
F1
aF0
aF0
aF1
atba(lp467
g10
(g11
(I0
tS'b'
tRp468
((I1
(I2
tg14
I00
(lp469
g461
ag33
at(NttbatbbsS'TM_0741'
p470
g3
(g4
g5
NtRp471
g3
(g7
g5
NtRp472
((lp473
g10
(g11
(I0
tS'b'
tRp474
((I1
(I2
tg14
I00
(lp475
g49
aS'PNS'
p476
at(Nttbag10
(g11
(I0
tS'b'
tRp477
((I1
(I2
tg14
I00
(lp478
g49
ag476
at(Nttba(lp479
g10
(g21
(I0
tS'b'
tRp480
(I1
(I2
I2
tg14
I00
(lp481
F1
aF0.108108
aF0.108108
aF1
atba(lp482
g10
(g11
(I0
tS'b'
tRp483
((I1
(I2
tg14
I00
(lp484
g49
ag476
at(NttbatbbsS'TM_1828'
p485
g3
(g4
g5
NtRp486
g3
(g7
g5
NtRp487
((lp488
g10
(g11
(I0
tS'b'
tRp489
((I1
(I4
tg14
I00
(lp490
g98
ag99
ag388
ag51
at(Nttbag10
(g11
(I0
tS'b'
tRp491
((I1
(I4
tg14
I00
(lp492
g98
ag99
ag388
ag51
at(Nttba(lp493
g10
(g21
(I0
tS'b'
tRp494
(I1
(I4
I4
tg14
I00
(lp495
F1
aF0
aF0
aF0
aF0
aF1
aF0.03125
aF0
aF0
aF0.03125
aF1
aF0.0044642900000000001
aF0
aF0
aF0.0044642900000000001
aF1
atba(lp496
g10
(g11
(I0
tS'b'
tRp497
((I1
(I4
tg14
I00
(lp498
g98
ag99
ag388
ag51
at(NttbatbbsS'TM_0211'
p499
g3
(g4
g5
NtRp500
g3
(g7
g5
NtRp501
((lp502
g10
(g11
(I0
tS'b'
tRp503
((I1
(I3
tg14
I00
(lp504
S'FFO'
p505
aS'RED'
p506
aS'THG'
p507
at(Nttbag10
(g11
(I0
tS'b'
tRp508
((I1
(I3
tg14
I00
(lp509
g505
ag506
ag507
at(Nttba(lp510
g10
(g21
(I0
tS'b'
tRp511
(I1
(I3
I3
tg14
I00
(lp512
F1
aF0.081521700000000002
aF0.95930199999999999
aF0.081521700000000002
aF1
aF0.084745799999999996
aF0.95930199999999999
aF0.084745799999999996
aF1
atba(lp513
g10
(g11
(I0
tS'b'
tRp514
((I1
(I3
tg14
I00
(lp515
g505
ag506
ag507
at(NttbatbbsS'TM_0114'
p516
g3
(g4
g5
NtRp517
g3
(g7
g5
NtRp518
((lp519
g10
(g11
(I0
tS'b'
tRp520
((I1
(I2
tg14
I00
(lp521
g81
aS'XYP'
p522
at(Nttbag10
(g11
(I0
tS'b'
tRp523
((I1
(I2
tg14
I00
(lp524
g81
ag522
at(Nttba(lp525
g10
(g21
(I0
tS'b'
tRp526
(I1
(I2
I2
tg14
I00
(lp527
F1
aF0.91891900000000004
aF0.91891900000000004
aF1
atba(lp528
g10
(g11
(I0
tS'b'
tRp529
((I1
(I2
tg14
I00
(lp530
g81
ag522
at(NttbatbbsS'TM_0447'
p531
g3
(g4
g5
NtRp532
g3
(g7
g5
NtRp533
((lp534
g10
(g11
(I0
tS'b'
tRp535
((I1
(I1
tg14
I00
(lp536
g117
at(Nttbag10
(g11
(I0
tS'b'
tRp537
((I1
(I1
tg14
I00
(lp538
g117
at(Nttba(lp539
g10
(g21
(I0
tS'b'
tRp540
(I1
(I1
I1
tg14
I00
(lp541
F1
atba(lp542
g10
(g11
(I0
tS'b'
tRp543
((I1
(I1
tg14
I00
(lp544
g117
at(NttbatbbsS'TM_1535'
p545
g3
(g4
g5
NtRp546
g3
(g7
g5
NtRp547
((lp548
g10
(g11
(I0
tS'b'
tRp549
((I1
(I1
tg14
I00
(lp550
g33
at(Nttbag10
(g11
(I0
tS'b'
tRp551
((I1
(I1
tg14
I00
(lp552
g33
at(Nttba(lp553
g10
(g21
(I0
tS'b'
tRp554
(I1
(I1
I1
tg14
I00
(lp555
F1
atba(lp556
g10
(g11
(I0
tS'b'
tRp557
((I1
(I1
tg14
I00
(lp558
g33
at(NttbatbbsS'TM_0449'
p559
g3
(g4
g5
NtRp560
g3
(g7
g5
NtRp561
((lp562
g10
(g11
(I0
tS'b'
tRp563
((I1
(I15
tg14
I00
(lp564
S'2PE'
p565
aS'FAD'
p566
ag98
ag102
ag33
aS'BRU'
p567
aS'D16'
p568
aS'UMP'
p569
ag505
aS'MEF'
p570
aS'PEG'
p571
aS'EPE'
p572
aS'PGE'
p573
aS'UFP'
p574
aS'FDA'
p575
at(Nttbag10
(g11
(I0
tS'b'
tRp576
((I1
(I15
tg14
I00
(lp577
g565
ag566
ag98
ag102
ag33
ag567
ag568
ag569
ag505
ag570
ag571
ag572
ag573
ag574
ag575
at(Nttba(lp578
g10
(g21
(I0
tS'b'
tRp579
(I1
(I15
I15
tg14
I00
(lp580
F1
aF0.049751200000000002
aF0
aF0
aF0
aF0.063829800000000006
aF0.028089900000000001
aF0.070866100000000001
aF0.022222200000000001
aF0.0201005
aF0.83333299999999999
aF0.0625
aF1
aF0.063829800000000006
aF0.049751200000000002
aF0.049751200000000002
aF1
aF0
aF0.025125600000000001
aF0.0098522200000000001
aF0.55299500000000001
aF0.29370600000000002
aF0.59113300000000002
aF0.32028499999999999
aF0.31756800000000002
aF0.050251299999999999
aF0.043859599999999999
aF0.049751200000000002
aF0.567442
aF1
aF0
aF0
aF1
aF0
aF0
aF0
aF0
aF0
aF0
aF0
aF0
aF0
aF0
aF0
aF0
aF0
aF0.025125600000000001
aF0
aF1
aF0
aF0.036231899999999997
aF0
aF0.0403226
aF0.0056818199999999998
aF0.0051282100000000002
aF0
aF0
aF0
aF0.036231899999999997
aF0.025125600000000001
aF0
aF0.0098522200000000001
aF0
aF0
aF1
aF0
aF0.0056818199999999998
aF0
aF0.0113636
aF0.010256400000000001
aF0
aF0.125
aF0
aF0
aF0.0098522200000000001
aF0.063829800000000006
aF0.55299500000000001
aF0
aF0.036231899999999997
aF0
aF1
aF0.231076
aF0.89855099999999999
aF0.23505999999999999
aF0.22761200000000001
aF0.064748200000000006
aF0.0290698
aF0.063829800000000006
aF0.81578899999999999
aF0.55299500000000001
aF0.028089900000000001
aF0.29370600000000002
aF0
aF0
aF0.0056818199999999998
aF0.231076
aF1
aF0.22406599999999999
aF0.47210299999999999
aF0.42519699999999999
aF0.0284091
aF0.065989800000000001
aF0.028089900000000001
aF0.231076
aF0.29370600000000002
aF0.070866100000000001
aF0.59113300000000002
aF0
aF0.0403226
aF0
aF0.89855099999999999
aF0.22406599999999999
aF1
aF0.23849400000000001
aF0.23046900000000001
aF0.071999999999999995
aF0.031645600000000003
aF0.070866100000000001
aF0.89855099999999999
aF0.59113300000000002
aF0.022222200000000001
aF0.32028499999999999
aF0
aF0.0056818199999999998
aF0.0113636
aF0.23505999999999999
aF0.47210299999999999
aF0.23849400000000001
aF1
aF0.83333299999999999
aF0.0224719
aF0.087628899999999996
aF0.022222200000000001
aF0.25506099999999998
aF0.32028499999999999
aF0.0201005
aF0.31756800000000002
aF0
aF0.0051282100000000002
aF0.010256400000000001
aF0.22761200000000001
aF0.42519699999999999
aF0.23046900000000001
aF0.83333299999999999
aF1
aF0.020304599999999999
aF0.0798122
aF0.0201005
aF0.24621199999999999
aF0.31756800000000002
aF0.83333299999999999
aF0.050251299999999999
aF0
aF0
aF0
aF0.064748200000000006
aF0.0284091
aF0.071999999999999995
aF0.0224719
aF0.020304599999999999
aF1
aF0.065217399999999995
aF0.83333299999999999
aF0.064748200000000006
aF0.050251299999999999
aF0.0625
aF0.043859599999999999
aF0
aF0
aF0.125
aF0.0290698
aF0.065989800000000001
aF0.031645600000000003
aF0.087628899999999996
aF0.0798122
aF0.065217399999999995
aF1
aF0.0625
aF0.041176499999999998
aF0.043859599999999999
aF1
aF0.049751200000000002
aF0
aF0
aF0
aF0.063829800000000006
aF0.028089900000000001
aF0.070866100000000001
aF0.022222200000000001
aF0.0201005
aF0.83333299999999999
aF0.0625
aF1
aF0.063829800000000006
aF0.049751200000000002
aF0.063829800000000006
aF0.567442
aF0
aF0.036231899999999997
aF0
aF0.81578899999999999
aF0.231076
aF0.89855099999999999
aF0.25506099999999998
aF0.24621199999999999
aF0.064748200000000006
aF0.041176499999999998
aF0.063829800000000006
aF1
aF0.567442
aF0.049751200000000002
aF1
aF0
aF0.025125600000000001
aF0.0098522200000000001
aF0.55299500000000001
aF0.29370600000000002
aF0.59113300000000002
aF0.32028499999999999
aF0.31756800000000002
aF0.050251299999999999
aF0.043859599999999999
aF0.049751200000000002
aF0.567442
aF1
atba(lp581
g10
(g11
(I0
tS'b'
tRp582
((I1
(I15
tg14
I00
(lp583
g565
ag566
ag98
ag102
ag33
ag567
ag568
ag569
ag505
ag570
ag571
ag572
ag573
ag574
ag575
at(NttbatbbsS'TM_0423'
p584
g3
(g4
g5
NtRp585
g3
(g7
g5
NtRp586
((lp587
g10
(g11
(I0
tS'b'
tRp588
((I1
(I3
tg14
I00
(lp589
g98
aS'TRS'
p590
ag51
at(Nttbag10
(g11
(I0
tS'b'
tRp591
((I1
(I3
tg14
I00
(lp592
g98
ag590
ag51
at(Nttba(lp593
g10
(g21
(I0
tS'b'
tRp594
(I1
(I3
I3
tg14
I00
(lp595
F1
aF0
aF0
aF0
aF1
aF0
aF0
aF0
aF1
atba(lp596
g10
(g11
(I0
tS'b'
tRp597
((I1
(I3
tg14
I00
(lp598
g98
ag590
ag51
at(NttbatbbsS'TM_1223'
p599
g3
(g4
g5
NtRp600
g3
(g7
g5
NtRp601
((lp602
g10
(g11
(I0
tS'b'
tRp603
((I1
(I9
tg14
I00
(lp604
g16
ag98
ag66
ag572
aS'FMT'
p605
aS'BMA'
p606
ag17
aS'NO3'
p607
aS'MAB'
p608
at(Nttbag10
(g11
(I0
tS'b'
tRp609
((I1
(I9
tg14
I00
(lp610
g16
ag98
ag66
ag572
ag605
ag606
ag17
ag607
ag608
at(Nttba(lp611
g10
(g21
(I0
tS'b'
tRp612
(I1
(I9
I9
tg14
I00
(lp613
F1
aF0
aF0.42857099999999998
aF0.071428599999999995
aF0.5
aF0.074999999999999997
aF0
aF0
aF0.059999999999999998
aF0
aF1
aF0
aF0
aF0
aF0
aF0
aF0
aF0
aF0.42857099999999998
aF0
aF1
aF0.074999999999999997
aF0.16666700000000001
aF0.108108
aF0
aF0
aF0.085106399999999999
aF0.071428599999999995
aF0
aF0.074999999999999997
aF1
aF0.024390200000000001
aF0.041095899999999998
aF0
aF0
aF0.036144599999999999
aF0.5
aF0
aF0.16666700000000001
aF0.024390200000000001
aF1
aF0.025641000000000001
aF0
aF0
aF0.020408200000000001
aF0.074999999999999997
aF0
aF0.108108
aF0.041095899999999998
aF0.025641000000000001
aF1
aF0
aF0
aF0.78723399999999999
aF0
aF0
aF0
aF0
aF0
aF0
aF1
aF0
aF0
aF0
aF0
aF0
aF0
aF0
aF0
aF0
aF1
aF0
aF0.059999999999999998
aF0
aF0.085106399999999999
aF0.036144599999999999
aF0.020408200000000001
aF0.78723399999999999
aF0
aF0
aF1
atba(lp614
g10
(g11
(I0
tS'b'
tRp615
((I1
(I9
tg14
I00
(lp616
g16
ag98
ag66
ag572
ag605
ag606
ag17
ag607
ag608
at(NttbatbbsS'TM_0174'
p617
g3
(g4
g5
NtRp618
g3
(g7
g5
NtRp619
((lp620
g10
(g11
(I0
tS'b'
tRp621
((I1
(I4
tg14
I00
(lp622
g82
ag17
aS'K'
ag102
at(Nttbag10
(g11
(I0
tS'b'
tRp623
((I1
(I4
tg14
I00
(lp624
g82
ag17
aS'K'
ag102
at(Nttba(lp625
g10
(g21
(I0
tS'b'
tRp626
(I1
(I4
I4
tg14
I00
(lp627
F1
aF0
aF0
aF0
aF0
aF1
aF0
aF0
aF0
aF0
aF1
aF0
aF0
aF0
aF0
aF1
atba(lp628
g10
(g11
(I0
tS'b'
tRp629
((I1
(I4
tg14
I00
(lp630
g82
ag17
aS'K'
ag102
at(NttbatbbsS'TM_1596'
p631
g3
(g4
g5
NtRp632
g3
(g7
g5
NtRp633
((lp634
g10
(g11
(I0
tS'b'
tRp635
((I1
(I2
tg14
I00
(lp636
S'GUN'
p637
ag17
at(Nttbag10
(g11
(I0
tS'b'
tRp638
((I1
(I2
tg14
I00
(lp639
g637
ag17
at(Nttba(lp640
g10
(g21
(I0
tS'b'
tRp641
(I1
(I2
I2
tg14
I00
(lp642
F1
aF0
aF0
aF1
atba(lp643
g10
(g11
(I0
tS'b'
tRp644
((I1
(I2
tg14
I00
(lp645
g637
ag17
at(NttbatbbsS'TM_0665'
p646
g3
(g4
g5
NtRp647
g3
(g7
g5
NtRp648
((lp649
g10
(g11
(I0
tS'b'
tRp650
((I1
(I1
tg14
I00
(lp651
g102
at(Nttbag10
(g11
(I0
tS'b'
tRp652
((I1
(I1
tg14
I00
(lp653
g102
at(Nttba(lp654
g10
(g21
(I0
tS'b'
tRp655
(I1
(I1
I1
tg14
I00
(lp656
F1
atba(lp657
g10
(g11
(I0
tS'b'
tRp658
((I1
(I1
tg14
I00
(lp659
g102
at(NttbatbbsS'TM_1612'
p660
g3
(g4
g5
NtRp661
g3
(g7
g5
NtRp662
((lp663
g10
(g11
(I0
tS'b'
tRp664
((I1
(I4
tg14
I00
(lp665
g343
ag98
ag17
ag328
at(Nttbag10
(g11
(I0
tS'b'
tRp666
((I1
(I4
tg14
I00
(lp667
g343
ag98
ag17
ag328
at(Nttba(lp668
g10
(g21
(I0
tS'b'
tRp669
(I1
(I4
I4
tg14
I00
(lp670
F1
aF0
aF0
aF0.063291100000000003
aF0
aF1
aF0
aF0
aF0
aF0
aF1
aF0
aF0.063291100000000003
aF0
aF0
aF1
atba(lp671
g10
(g11
(I0
tS'b'
tRp672
((I1
(I4
tg14
I00
(lp673
g343
ag98
ag17
ag328
at(NttbatbbsS'TM_0911'
p674
g3
(g4
g5
NtRp675
g3
(g7
g5
NtRp676
((lp677
g10
(g11
(I0
tS'b'
tRp678
((I1
(I2
tg14
I00
(lp679
g98
ag33
at(Nttbag10
(g11
(I0
tS'b'
tRp680
((I1
(I2
tg14
I00
(lp681
g98
ag33
at(Nttba(lp682
g10
(g21
(I0
tS'b'
tRp683
(I1
(I2
I2
tg14
I00
(lp684
F1
aF0
aF0
aF1
atba(lp685
g10
(g11
(I0
tS'b'
tRp686
((I1
(I2
tg14
I00
(lp687
g98
ag33
at(NttbatbbsS'TM_0070'
p688
g3
(g4
g5
NtRp689
g3
(g7
g5
NtRp690
((lp691
g10
(g11
(I0
tS'b'
tRp692
((I1
(I5
tg14
I00
(lp693
g267
ag99
ag33
ag522
aS'XYS'
p694
at(Nttbag10
(g11
(I0
tS'b'
tRp695
((I1
(I5
tg14
I00
(lp696
g267
ag99
ag33
ag522
ag694
at(Nttba(lp697
g10
(g21
(I0
tS'b'
tRp698
(I1
(I5
I5
tg14
I00
(lp699
F1
aF0.29999999999999999
aF0
aF0.081081100000000003
aF0.081081100000000003
aF0.29999999999999999
aF1
aF0
aF0.20588200000000001
aF0.20588200000000001
aF0
aF0
aF1
aF0
aF0
aF0.081081100000000003
aF0.20588200000000001
aF0
aF1
aF1
aF0.081081100000000003
aF0.20588200000000001
aF0
aF1
aF1
atba(lp700
g10
(g11
(I0
tS'b'
tRp701
((I1
(I5
tg14
I00
(lp702
g267
ag99
ag33
ag522
ag694
at(NttbatbbsS'TM_0412'
p703
g3
(g4
g5
NtRp704
g3
(g7
g5
NtRp705
((lp706
g10
(g11
(I0
tS'b'
tRp707
((I1
(I3
tg14
I00
(lp708
S'CD'
p709
ag98
ag99
at(Nttbag10
(g11
(I0
tS'b'
tRp710
((I1
(I3
tg14
I00
(lp711
g709
ag98
ag99
at(Nttba(lp712
g10
(g21
(I0
tS'b'
tRp713
(I1
(I3
I3
tg14
I00
(lp714
F1
aF0
aF0
aF0
aF1
aF0
aF0
aF0
aF1
atba(lp715
g10
(g11
(I0
tS'b'
tRp716
((I1
(I3
tg14
I00
(lp717
g709
ag98
ag99
at(NttbatbbsS'TM_1135'
p718
g3
(g4
g5
NtRp719
g3
(g7
g5
NtRp720
((lp721
g10
(g11
(I0
tS'b'
tRp722
((I1
(I2
tg14
I00
(lp723
g66
ag33
at(Nttbag10
(g11
(I0
tS'b'
tRp724
((I1
(I2
tg14
I00
(lp725
g66
ag33
at(Nttba(lp726
g10
(g21
(I0
tS'b'
tRp727
(I1
(I2
I2
tg14
I00
(lp728
F1
aF0
aF0
aF1
atba(lp729
g10
(g11
(I0
tS'b'
tRp730
((I1
(I2
tg14
I00
(lp731
g66
ag33
at(NttbatbbsS'TM_1698'
p732
g3
(g4
g5
NtRp733
g3
(g7
g5
NtRp734
((lp735
g10
(g11
(I0
tS'b'
tRp736
((I1
(I1
tg14
I00
(lp737
S'LLP'
p738
at(Nttbag10
(g11
(I0
tS'b'
tRp739
((I1
(I1
tg14
I00
(lp740
g738
at(Nttba(lp741
g10
(g21
(I0
tS'b'
tRp742
(I1
(I1
I1
tg14
I00
(lp743
F1
atba(lp744
g10
(g11
(I0
tS'b'
tRp745
((I1
(I1
tg14
I00
(lp746
g738
at(NttbatbbsS'TM_0857'
p747
g3
(g4
g5
NtRp748
g3
(g7
g5
NtRp749
((lp750
g10
(g11
(I0
tS'b'
tRp751
((I1
(I7
tg14
I00
(lp752
g117
aS'AMP'
p753
aS'FMN'
p754
ag146
aS'LUM'
p755
ag17
aS'RBF'
p756
at(Nttbag10
(g11
(I0
tS'b'
tRp757
((I1
(I7
tg14
I00
(lp758
g117
ag753
ag754
ag146
ag755
ag17
ag756
at(Nttba(lp759
g10
(g21
(I0
tS'b'
tRp760
(I1
(I7
I7
tg14
I00
(lp761
F1
aF0.91946300000000003
aF0.46969699999999998
aF0.094339599999999996
aF0.20103099999999999
aF0
aF0.35353499999999999
aF0.91946300000000003
aF1
aF0.491979
aF0.10204100000000001
aF0.20765
aF0
aF0.36898399999999998
aF0.46969699999999998
aF0.491979
aF1
aF0.091503299999999996
aF0.59154899999999999
aF0
aF0.838028
aF0.094339599999999996
aF0.10204100000000001
aF0.091503299999999996
aF1
aF0.048076899999999999
aF0
aF0.099236599999999994
aF0.20103099999999999
aF0.20765
aF0.59154899999999999
aF0.048076899999999999
aF1
aF0
aF0.70588200000000001
aF0
aF0
aF0
aF0
aF0
aF1
aF0
aF0.35353499999999999
aF0.36898399999999998
aF0.838028
aF0.099236599999999994
aF0.70588200000000001
aF0
aF1
atba(lp762
g10
(g11
(I0
tS'b'
tRp763
((I1
(I7
tg14
I00
(lp764
g117
ag753
ag754
ag146
ag755
ag17
ag756
at(NttbatbbsS'TM_0189'
p765
g3
(g4
g5
NtRp766
g3
(g7
g5
NtRp767
((lp768
g10
(g11
(I0
tS'b'
tRp769
((I1
(I5
tg14
I00
(lp770
g98
ag66
aS'MLY'
p771
ag446
ag102
at(Nttbag10
(g11
(I0
tS'b'
tRp772
((I1
(I5
tg14
I00
(lp773
g98
ag66
ag771
ag446
ag102
at(Nttba(lp774
g10
(g21
(I0
tS'b'
tRp775
(I1
(I5
I5
tg14
I00
(lp776
F1
aF0
aF0
aF0
aF0
aF0
aF1
aF0.090909100000000007
aF0
aF0
aF0
aF0.090909100000000007
aF1
aF0
aF0
aF0
aF0
aF0
aF1
aF0
aF0
aF0
aF0
aF0
aF1
atba(lp777
g10
(g11
(I0
tS'b'
tRp778
((I1
(I5
tg14
I00
(lp779
g98
ag66
ag771
ag446
ag102
at(NttbatbbsS'TM_0268'
p780
g3
(g4
g5
NtRp781
g3
(g7
g5
NtRp782
((lp783
g10
(g11
(I0
tS'b'
tRp784
((I1
(I6
tg14
I00
(lp785
S'C2F'
p786
ag709
aS'HCS'
p787
aS'K'
aS'YT3'
p788
ag51
at(Nttbag10
(g11
(I0
tS'b'
tRp789
((I1
(I6
tg14
I00
(lp790
g786
ag709
ag787
aS'K'
ag788
ag51
at(Nttba(lp791
g10
(g21
(I0
tS'b'
tRp792
(I1
(I6
I6
tg14
I00
(lp793
F1
aF0
aF0.098265900000000003
aF0
aF0
aF0
aF0
aF1
aF0
aF0
aF0
aF0
aF0.098265900000000003
aF0
aF1
aF0
aF0
aF0
aF0
aF0
aF0
aF1
aF0
aF0
aF0
aF0
aF0
aF0
aF1
aF0
aF0
aF0
aF0
aF0
aF0
aF1
atba(lp794
g10
(g11
(I0
tS'b'
tRp795
((I1
(I6
tg14
I00
(lp796
g786
ag709
ag787
aS'K'
ag788
ag51
at(NttbatbbsS'TM_1744'
p797
g3
(g4
g5
NtRp798
g3
(g7
g5
NtRp799
((lp800
g10
(g11
(I0
tS'b'
tRp801
((I1
(I7
tg14
I00
(lp802
g82
ag98
ag738
ag99
ag207
aS'TLP'
p803
aS'PLG'
p804
at(Nttbag10
(g11
(I0
tS'b'
tRp805
((I1
(I7
tg14
I00
(lp806
g82
ag98
ag738
ag99
ag207
ag803
ag804
at(Nttba(lp807
g10
(g21
(I0
tS'b'
tRp808
(I1
(I7
I7
tg14
I00
(lp809
F1
aF0
aF0
aF0
aF0
aF0
aF0
aF0
aF1
aF0
aF0
aF0
aF0
aF0
aF0
aF0
aF1
aF0.036764699999999997
aF0.635714
aF0.859155
aF0.80000000000000004
aF0
aF0
aF0.036764699999999997
aF1
aF0.030303
aF0.045801500000000002
aF0.0245902
aF0
aF0
aF0.635714
aF0.030303
aF1
aF0.65441199999999999
aF0.71774199999999999
aF0
aF0
aF0.859155
aF0.045801500000000002
aF0.65441199999999999
aF1
aF0.90769200000000005
aF0
aF0
aF0.80000000000000004
aF0.0245902
aF0.71774199999999999
aF0.90769200000000005
aF1
atba(lp810
g10
(g11
(I0
tS'b'
tRp811
((I1
(I7
tg14
I00
(lp812
g82
ag98
ag738
ag99
ag207
ag803
ag804
at(NttbatbbsS'TM_0346'
p813
g3
(g4
g5
NtRp814
g3
(g7
g5
NtRp815
((lp816
g10
(g11
(I0
tS'b'
tRp817
((I1
(I1
tg14
I00
(lp818
g33
at(Nttbag10
(g11
(I0
tS'b'
tRp819
((I1
(I1
tg14
I00
(lp820
g33
at(Nttba(lp821
g10
(g21
(I0
tS'b'
tRp822
(I1
(I1
I1
tg14
I00
(lp823
F1
atba(lp824
g10
(g11
(I0
tS'b'
tRp825
((I1
(I1
tg14
I00
(lp826
g33
at(NttbatbbsS'TM_0343'
p827
g3
(g4
g5
NtRp828
g3
(g7
g5
NtRp829
((lp830
g10
(g11
(I0
tS'b'
tRp831
((I1
(I8
tg14
I00
(lp832
S'AZI'
p833
ag162
ag99
ag98
ag607
ag709
aS'E4P'
p834
aS'PEP'
p835
at(Nttbag10
(g11
(I0
tS'b'
tRp836
((I1
(I8
tg14
I00
(lp837
g833
ag162
ag99
ag98
ag607
ag709
ag834
ag835
at(Nttba(lp838
g10
(g21
(I0
tS'b'
tRp839
(I1
(I8
I8
tg14
I00
(lp840
F1
aF0
aF0
aF0
aF0
aF0
aF0
aF0
aF0
aF1
aF0.13513500000000001
aF0
aF0
aF0
aF0.15384600000000001
aF0.098360699999999995
aF0
aF0.13513500000000001
aF1
aF0
aF0
aF0
aF0.17499999999999999
aF0.114286
aF0
aF0
aF0
aF1
aF0
aF0
aF0
aF0
aF0
aF0
aF0
aF0
aF1
aF0
aF0
aF0
aF0
aF0
aF0
aF0
aF0
aF1
aF0
aF0
aF0
aF0.15384600000000001
aF0.17499999999999999
aF0
aF0
aF0
aF1
aF0.41176499999999999
aF0
aF0.098360699999999995
aF0.114286
aF0
aF0
aF0
aF0.41176499999999999
aF1
atba(lp841
g10
(g11
(I0
tS'b'
tRp842
((I1
(I8
tg14
I00
(lp843
g833
ag162
ag99
ag98
ag607
ag709
ag834
ag835
at(NttbatbbsS'TM_0920'
p844
g3
(g4
g5
NtRp845
g3
(g7
g5
NtRp846
((lp847
g10
(g11
(I0
tS'b'
tRp848
((I1
(I5
tg14
I00
(lp849
S'CAC'
p850
aS'NAP'
p851
ag51
aS'FE'
p852
ag590
at(Nttbag10
(g11
(I0
tS'b'
tRp853
((I1
(I5
tg14
I00
(lp854
g850
ag851
ag51
ag852
ag590
at(Nttba(lp855
g10
(g21
(I0
tS'b'
tRp856
(I1
(I5
I5
tg14
I00
(lp857
F1
aF0
aF0
aF0
aF0
aF0
aF1
aF0.0052631600000000002
aF0
aF0.047368399999999998
aF0
aF0.0052631600000000002
aF1
aF0
aF0
aF0
aF0
aF0
aF1
aF0
aF0
aF0.047368399999999998
aF0
aF0
aF1
atba(lp858
g10
(g11
(I0
tS'b'
tRp859
((I1
(I5
tg14
I00
(lp860
g850
ag851
ag51
ag852
ag590
at(NttbatbbsS'TM_0166'
p861
g3
(g4
g5
NtRp862
g3
(g7
g5
NtRp863
((lp864
g10
(g11
(I0
tS'b'
tRp865
((I1
(I2
tg14
I00
(lp866
g98
ag33
at(Nttbag10
(g11
(I0
tS'b'
tRp867
((I1
(I2
tg14
I00
(lp868
g98
ag33
at(Nttba(lp869
g10
(g21
(I0
tS'b'
tRp870
(I1
(I2
I2
tg14
I00
(lp871
F1
aF0
aF0
aF1
atba(lp872
g10
(g11
(I0
tS'b'
tRp873
((I1
(I2
tg14
I00
(lp874
g98
ag33
at(NttbatbbsS'TM_1273'
p875
g3
(g4
g5
NtRp876
g3
(g7
g5
NtRp877
((lp878
g10
(g11
(I0
tS'b'
tRp879
((I1
(I2
tg14
I00
(lp880
g50
ag51
at(Nttbag10
(g11
(I0
tS'b'
tRp881
((I1
(I2
tg14
I00
(lp882
g50
ag51
at(Nttba(lp883
g10
(g21
(I0
tS'b'
tRp884
(I1
(I2
I2
tg14
I00
(lp885
F1
aF0
aF0
aF1
atba(lp886
g10
(g11
(I0
tS'b'
tRp887
((I1
(I2
tg14
I00
(lp888
g50
ag51
at(NttbatbbsS'TM_0161'
p889
g3
(g4
g5
NtRp890
g3
(g7
g5
NtRp891
((lp892
g10
(g11
(I0
tS'b'
tRp893
((I1
(I2
tg14
I00
(lp894
g66
ag771
at(Nttbag10
(g11
(I0
tS'b'
tRp895
((I1
(I2
tg14
I00
(lp896
g66
ag771
at(Nttba(lp897
g10
(g21
(I0
tS'b'
tRp898
(I1
(I2
I2
tg14
I00
(lp899
F1
aF0.090909100000000007
aF0.090909100000000007
aF1
atba(lp900
g10
(g11
(I0
tS'b'
tRp901
((I1
(I2
tg14
I00
(lp902
g66
ag771
at(NttbatbbsS'TM_1099'
p903
g3
(g4
g5
NtRp904
g3
(g7
g5
NtRp905
((lp906
g10
(g11
(I0
tS'b'
tRp907
((I1
(I3
tg14
I00
(lp908
g117
ag17
aS'TYD'
p909
at(Nttbag10
(g11
(I0
tS'b'
tRp910
((I1
(I3
tg14
I00
(lp911
g117
ag17
ag909
at(Nttba(lp912
g10
(g21
(I0
tS'b'
tRp913
(I1
(I3
I3
tg14
I00
(lp914
F1
aF0
aF0.64606699999999995
aF0
aF1
aF0
aF0.64606699999999995
aF0
aF1
atba(lp915
g10
(g11
(I0
tS'b'
tRp916
((I1
(I3
tg14
I00
(lp917
g117
ag17
ag909
at(NttbatbbsS'TM_1845'
p918
g3
(g4
g5
NtRp919
g3
(g7
g5
NtRp920
((lp921
g10
(g11
(I0
tS'b'
tRp922
((I1
(I1
tg14
I00
(lp923
S'GLC'
p924
at(Nttbag10
(g11
(I0
tS'b'
tRp925
((I1
(I1
tg14
I00
(lp926
g924
at(Nttba(lp927
g10
(g21
(I0
tS'b'
tRp928
(I1
(I1
I1
tg14
I00
(lp929
F1
atba(lp930
g10
(g11
(I0
tS'b'
tRp931
((I1
(I1
tg14
I00
(lp932
g924
at(NttbatbbsS'TM_0800'
p933
g3
(g4
g5
NtRp934
g3
(g7
g5
NtRp935
((lp936
g10
(g11
(I0
tS'b'
tRp937
((I1
(I4
tg14
I00
(lp938
g565
ag66
ag102
ag33
at(Nttbag10
(g11
(I0
tS'b'
tRp939
((I1
(I4
tg14
I00
(lp940
g565
ag66
ag102
ag33
at(Nttba(lp941
g10
(g21
(I0
tS'b'
tRp942
(I1
(I4
I4
tg14
I00
(lp943
F1
aF0.33333299999999999
aF0
aF0
aF0.33333299999999999
aF1
aF0
aF0
aF0
aF0
aF1
aF0
aF0
aF0
aF0
aF1
atba(lp944
g10
(g11
(I0
tS'b'
tRp945
((I1
(I4
tg14
I00
(lp946
g565
ag66
ag102
ag33
at(NttbatbbsS'TM_1751'
p947
g3
(g4
g5
NtRp948
g3
(g7
g5
NtRp949
((lp950
g10
(g11
(I0
tS'b'
tRp951
((I1
(I8
tg14
I00
(lp952
g81
aS'CBK'
p953
ag924
ag83
ag606
aS'MAN'
p954
ag709
ag446
at(Nttbag10
(g11
(I0
tS'b'
tRp955
((I1
(I8
tg14
I00
(lp956
g81
ag953
ag924
ag83
ag606
ag954
ag709
ag446
at(Nttba(lp957
g10
(g21
(I0
tS'b'
tRp958
(I1
(I8
I8
tg14
I00
(lp959
F1
aF0.78723399999999999
aF1
aF0.78723399999999999
aF1
aF1
aF0
aF0
aF0.78723399999999999
aF1
aF0.78723399999999999
aF1
aF0.78723399999999999
aF0.78723399999999999
aF0
aF0
aF1
aF0.78723399999999999
aF1
aF0.78723399999999999
aF1
aF1
aF0
aF0
aF0.78723399999999999
aF1
aF0.78723399999999999
aF1
aF0.78723399999999999
aF0.78723399999999999
aF0
aF0
aF1
aF0.78723399999999999
aF1
aF0.78723399999999999
aF1
aF1
aF0
aF0
aF1
aF0.78723399999999999
aF1
aF0.78723399999999999
aF1
aF1
aF0
aF0
aF0
aF0
aF0
aF0
aF0
aF0
aF1
aF0
aF0
aF0
aF0
aF0
aF0
aF0
aF0
aF1
atba(lp960
g10
(g11
(I0
tS'b'
tRp961
((I1
(I8
tg14
I00
(lp962
g81
ag953
ag924
ag83
ag606
ag954
ag709
ag446
at(NttbatbbsS'TM_1169'
p963
g3
(g4
g5
NtRp964
g3
(g7
g5
NtRp965
((lp966
g10
(g11
(I0
tS'b'
tRp967
((I1
(I1
tg14
I00
(lp968
g164
at(Nttbag10
(g11
(I0
tS'b'
tRp969
((I1
(I1
tg14
I00
(lp970
g164
at(Nttba(lp971
g10
(g21
(I0
tS'b'
tRp972
(I1
(I1
I1
tg14
I00
(lp973
F1
atba(lp974
g10
(g11
(I0
tS'b'
tRp975
((I1
(I1
tg14
I00
(lp976
g164
at(NttbatbbsS'TM_1281'
p977
g3
(g4
g5
NtRp978
g3
(g7
g5
NtRp979
((lp980
g10
(g11
(I0
tS'b'
tRp981
((I1
(I4
tg14
I00
(lp982
S'G6P'
p983
aS'MN'
p984
ag164
ag33
at(Nttbag10
(g11
(I0
tS'b'
tRp985
((I1
(I4
tg14
I00
(lp986
g983
ag984
ag164
ag33
at(Nttba(lp987
g10
(g21
(I0
tS'b'
tRp988
(I1
(I4
I4
tg14
I00
(lp989
F1
aF0
aF0.30890099999999998
aF0
aF0
aF1
aF0
aF0
aF0.30890099999999998
aF0
aF1
aF0.0053191499999999999
aF0
aF0
aF0.0053191499999999999
aF1
atba(lp990
g10
(g11
(I0
tS'b'
tRp991
((I1
(I4
tg14
I00
(lp992
g983
ag984
ag164
ag33
at(NttbatbbsS'TM_1286'
p993
g3
(g4
g5
NtRp994
g3
(g7
g5
NtRp995
((lp996
g10
(g11
(I0
tS'b'
tRp997
((I1
(I6
tg14
I00
(lp998
g786
aS'MRY'
p999
ag33
ag51
ag66
ag787
at(Nttbag10
(g11
(I0
tS'b'
tRp1000
((I1
(I6
tg14
I00
(lp1001
g786
ag999
ag33
ag51
ag66
ag787
at(Nttba(lp1002
g10
(g21
(I0
tS'b'
tRp1003
(I1
(I6
I6
tg14
I00
(lp1004
F1
aF0.041666700000000001
aF0.011834300000000001
aF0
aF0.018072299999999999
aF0.098265900000000003
aF0.041666700000000001
aF1
aF0
aF0
aF0.40000000000000002
aF0.25
aF0.011834300000000001
aF0
aF1
aF0
aF0
aF0.033333300000000003
aF0
aF0
aF0
aF1
aF0
aF0
aF0.018072299999999999
aF0.40000000000000002
aF0
aF0
aF1
aF0.115385
aF0.098265900000000003
aF0.25
aF0.033333300000000003
aF0
aF0.115385
aF1
atba(lp1005
g10
(g11
(I0
tS'b'
tRp1006
((I1
(I6
tg14
I00
(lp1007
g786
ag999
ag33
ag51
ag66
ag787
at(NttbatbbsS'TM_1733'
p1008
g3
(g4
g5
NtRp1009
g3
(g7
g5
NtRp1010
((lp1011
g10
(g11
(I0
tS'b'
tRp1012
((I1
(I1
tg14
I00
(lp1013
g33
at(Nttbag10
(g11
(I0
tS'b'
tRp1014
((I1
(I1
tg14
I00
(lp1015
g33
at(Nttba(lp1016
g10
(g21
(I0
tS'b'
tRp1017
(I1
(I1
I1
tg14
I00
(lp1018
F1
atba(lp1019
g10
(g11
(I0
tS'b'
tRp1020
((I1
(I1
tg14
I00
(lp1021
g33
at(NttbatbbsS'TM_0549'
p1022
g3
(g4
g5
NtRp1023
g3
(g7
g5
NtRp1024
((lp1025
g10
(g11
(I0
tS'b'
tRp1026
((I1
(I1
tg14
I00
(lp1027
g17
at(Nttbag10
(g11
(I0
tS'b'
tRp1028
((I1
(I1
tg14
I00
(lp1029
g17
at(Nttba(lp1030
g10
(g21
(I0
tS'b'
tRp1031
(I1
(I1
I1
tg14
I00
(lp1032
F1
atba(lp1033
g10
(g11
(I0
tS'b'
tRp1034
((I1
(I1
tg14
I00
(lp1035
g17
at(NttbatbbsS'TM_1204'
p1036
g3
(g4
g5
NtRp1037
g3
(g7
g5
NtRp1038
((lp1039
g10
(g11
(I0
tS'b'
tRp1040
((I1
(I1
tg14
I00
(lp1041
S'MLR'
p1042
at(Nttbag10
(g11
(I0
tS'b'
tRp1043
((I1
(I1
tg14
I00
(lp1044
g1042
at(Nttba(lp1045
g10
(g21
(I0
tS'b'
tRp1046
(I1
(I1
I1
tg14
I00
(lp1047
F1
atba(lp1048
g10
(g11
(I0
tS'b'
tRp1049
((I1
(I1
tg14
I00
(lp1050
g1042
at(NttbatbbsS'TM_1040'
p1051
g3
(g4
g5
NtRp1052
g3
(g7
g5
NtRp1053
((lp1054
g10
(g11
(I0
tS'b'
tRp1055
((I1
(I5
tg14
I00
(lp1056
g66
aS'PMP'
p1057
aS'HSA'
p1058
ag207
ag102
at(Nttbag10
(g11
(I0
tS'b'
tRp1059
((I1
(I5
tg14
I00
(lp1060
g66
ag1057
ag1058
ag207
ag102
at(Nttba(lp1061
g10
(g21
(I0
tS'b'
tRp1062
(I1
(I5
I5
tg14
I00
(lp1063
F1
aF0.03125
aF0.0405405
aF0.03125
aF0
aF0.03125
aF1
aF0.22627700000000001
aF0.84465999999999997
aF0.052631600000000001
aF0.0405405
aF0.22627700000000001
aF1
aF0.20863300000000001
aF0.068493200000000004
aF0.03125
aF0.84465999999999997
aF0.20863300000000001
aF1
aF0.052631600000000001
aF0
aF0.052631600000000001
aF0.068493200000000004
aF0.052631600000000001
aF1
atba(lp1064
g10
(g11
(I0
tS'b'
tRp1065
((I1
(I5
tg14
I00
(lp1066
g66
ag1057
ag1058
ag207
ag102
at(NttbatbbsS'TM_1517'
p1067
g3
(g4
g5
NtRp1068
g3
(g7
g5
NtRp1069
((lp1070
g10
(g11
(I0
tS'b'
tRp1071
((I1
(I1
tg14
I00
(lp1072
g207
at(Nttbag10
(g11
(I0
tS'b'
tRp1073
((I1
(I1
tg14
I00
(lp1074
g207
at(Nttba(lp1075
g10
(g21
(I0
tS'b'
tRp1076
(I1
(I1
I1
tg14
I00
(lp1077
F1
atba(lp1078
g10
(g11
(I0
tS'b'
tRp1079
((I1
(I1
tg14
I00
(lp1080
g207
at(NttbatbbsS'TM_1042'
p1081
g3
(g4
g5
NtRp1082
g3
(g7
g5
NtRp1083
((lp1084
g10
(g11
(I0
tS'b'
tRp1085
((I1
(I1
tg14
I00
(lp1086
g102
at(Nttbag10
(g11
(I0
tS'b'
tRp1087
((I1
(I1
tg14
I00
(lp1088
g102
at(Nttba(lp1089
g10
(g21
(I0
tS'b'
tRp1090
(I1
(I1
I1
tg14
I00
(lp1091
F1
atba(lp1092
g10
(g11
(I0
tS'b'
tRp1093
((I1
(I1
tg14
I00
(lp1094
g102
at(NttbatbbsS'TM_1043'
p1095
g3
(g4
g5
NtRp1096
g3
(g7
g5
NtRp1097
((lp1098
g10
(g11
(I0
tS'b'
tRp1099
((I1
(I1
tg14
I00
(lp1100
g102
at(Nttbag10
(g11
(I0
tS'b'
tRp1101
((I1
(I1
tg14
I00
(lp1102
g102
at(Nttba(lp1103
g10
(g21
(I0
tS'b'
tRp1104
(I1
(I1
I1
tg14
I00
(lp1105
F1
atba(lp1106
g10
(g11
(I0
tS'b'
tRp1107
((I1
(I1
tg14
I00
(lp1108
g102
at(NttbatbbsS'TM_0716'
p1109
g3
(g4
g5
NtRp1110
g3
(g7
g5
NtRp1111
((lp1112
g10
(g11
(I0
tS'b'
tRp1113
((I1
(I2
tg14
I00
(lp1114
S'BCT'
p1115
ag17
at(Nttbag10
(g11
(I0
tS'b'
tRp1116
((I1
(I2
tg14
I00
(lp1117
g1115
ag17
at(Nttba(lp1118
g10
(g21
(I0
tS'b'
tRp1119
(I1
(I2
I2
tg14
I00
(lp1120
F1
aF0
aF0
aF1
atba(lp1121
g10
(g11
(I0
tS'b'
tRp1122
((I1
(I2
tg14
I00
(lp1123
g1115
ag17
at(NttbatbbsS'TM_1246'
p1124
g3
(g4
g5
NtRp1125
g3
(g7
g5
NtRp1126
((lp1127
g10
(g11
(I0
tS'b'
tRp1128
((I1
(I8
tg14
I00
(lp1129
S'ACP'
p1130
aS'FGR'
p1131
ag17
ag102
ag117
aS'CYG'
p1132
ag343
ag98
at(Nttbag10
(g11
(I0
tS'b'
tRp1133
((I1
(I8
tg14
I00
(lp1134
g1130
ag1131
ag17
ag102
ag117
ag1132
ag343
ag98
at(Nttba(lp1135
g10
(g21
(I0
tS'b'
tRp1136
(I1
(I8
I8
tg14
I00
(lp1137
F1
aF0.35406700000000002
aF0
aF0.029585799999999999
aF0.88165700000000002
aF0.080188700000000002
aF0.84659099999999998
aF0
aF0.35406700000000002
aF1
aF0
aF0.043859599999999999
aF0.39153399999999999
aF0.122581
aF0.37755100000000003
aF0
aF0
aF0
aF1
aF0
aF0
aF0
aF0
aF0
aF0.029585799999999999
aF0.043859599999999999
aF0
aF1
aF0.033556999999999997
aF0
aF0.032051299999999998
aF0
aF0.88165700000000002
aF0.39153399999999999
aF0
aF0.033556999999999997
aF1
aF0.082901600000000006
aF0.95512799999999998
aF0
aF0.080188700000000002
aF0.122581
aF0
aF0
aF0.082901600000000006
aF1
aF0.085427100000000006
aF0
aF0.84659099999999998
aF0.37755100000000003
aF0
aF0.032051299999999998
aF0.95512799999999998
aF0.085427100000000006
aF1
aF0
aF0
aF0
aF0
aF0
aF0
aF0
aF0
aF1
atba(lp1138
g10
(g11
(I0
tS'b'
tRp1139
((I1
(I8
tg14
I00
(lp1140
g1130
ag1131
ag17
ag102
ag117
ag1132
ag343
ag98
at(NttbatbbsS'TM_1269'
p1141
g3
(g4
g5
NtRp1142
g3
(g7
g5
NtRp1143
((lp1144
g10
(g11
(I0
tS'b'
tRp1145
((I1
(I21
tg14
I00
(lp1146
S'1N7'
p1147
ag358
aS'CO3'
p1148
aS'F3S'
p1149
aS'OTY'
p1150
aS'SAH'
p1151
ag403
aS'CPS'
p1152
ag852
aS'H2S'
p1153
ag98
aS'CSO'
p1154
aS'FES'
p1155
ag99
aS'IPA'
p1156
aS'SAM'
p1157
ag33
aS'5AD'
p1158
aS'SAT'
p1159
ag571
aS'SCN'
p1160
at(Nttbag10
(g11
(I0
tS'b'
tRp1161
((I1
(I21
tg14
I00
(lp1162
g1147
ag358
ag1148
ag1149
ag1150
ag1151
ag403
ag1152
ag852
ag1153
ag98
ag1154
ag1155
ag99
ag1156
ag1157
ag33
ag1158
ag1159
ag571
ag1160
at(Nttba(lp1163
g10
(g21
(I0
tS'b'
tRp1164
(I1
(I21
I21
tg14
I00
(lp1165
F1
aF0
aF0.027026999999999999
aF0.037037
aF0.17431199999999999
aF0.202186
aF0.036585399999999997
aF0.91666700000000001
aF0.013888899999999999
aF0.013888899999999999
aF0
aF0.23749999999999999
aF0.025974000000000001
aF0.067567600000000005
aF0.055555599999999997
aF0.202186
aF0.068493200000000004
aF0.14743600000000001
aF0.26666699999999999
aF0.0379747
aF0.027026999999999999
aF0
aF1
aF0
aF0
aF0
aF0
aF0
aF0
aF0
aF0
aF0
aF0
aF0
aF0
aF0
aF0
aF0
aF0
aF0
aF0
aF0
aF0.027026999999999999
aF0
aF1
aF0
aF0.052631600000000001
aF0.020134200000000001
aF0
aF0.029411799999999998
aF0
aF0
aF0
aF0.107143
aF0
aF0.10000000000000001
aF0.14285700000000001
aF0.020134200000000001
aF0
aF0.0090909100000000007
aF0.125
aF0.076923099999999994
aF0
aF0.037037
aF0
aF0
aF1
aF0.0149254
aF0.019108300000000002
aF0.92307700000000004
aF0.012987
aF0.083333299999999999
aF0.083333299999999999
aF0
aF0.054054100000000001
aF0.58333299999999999
aF0
aF0
aF0.019108300000000002
aF0.058823500000000001
aF0.0084745800000000007
aF0.060606100000000003
aF0
aF0.066666699999999995
aF0.17431199999999999
aF0
aF0.052631600000000001
aF0.0149254
aF1
aF0.13333300000000001
aF0.014705899999999999
aF0.16190499999999999
aF0
aF0
aF0
aF0.23880599999999999
aF0
aF0.086206900000000003
aF0.071428599999999995
aF0.13333300000000001
aF0
aF0.124138
aF0.144928
aF0.064516100000000007
aF0
aF0.202186
aF0
aF0.020134200000000001
aF0.019108300000000002
aF0.13333300000000001
aF1
aF0.018987299999999999
aF0.18232000000000001
aF0.0067567599999999997
aF0.0067567599999999997
aF0
aF0.11465
aF0.013071899999999999
aF0.0472973
aF0.027026999999999999
aF1
aF0.0198675
aF0.72297299999999998
aF0.082278500000000004
aF0.067567600000000005
aF0.027026999999999999
aF0.036585399999999997
aF0
aF0
aF0.92307700000000004
aF0.014705899999999999
aF0.018987299999999999
aF1
aF0.0128205
aF0.076923099999999994
aF0.076923099999999994
aF0
aF0.052631600000000001
aF0.538462
aF0
aF0
aF0.018987299999999999
aF0.055555599999999997
aF0.0084033600000000003
aF0.058823500000000001
aF0
aF0.0625
aF0.91666700000000001
aF0
aF0.029411799999999998
aF0.012987
aF0.16190499999999999
aF0.18232000000000001
aF0.0128205
aF1
aF0
aF0.0151515
aF0
aF0.23999999999999999
aF0.013888899999999999
aF0.073529399999999995
aF0.060606100000000003
aF0.18232000000000001
aF0.074626899999999996
aF0.130719
aF0.253521
aF0.041095899999999998
aF0.029411799999999998
aF0.013888899999999999
aF0
aF0
aF0.083333299999999999
aF0
aF0.0067567599999999997
aF0.076923099999999994
aF0
aF1
aF0
aF0
aF0
aF0.14285700000000001
aF0
aF0
aF0.0067567599999999997
aF0
aF0
aF0.043478299999999998
aF0
aF0
aF0.013888899999999999
aF0
aF0
aF0.083333299999999999
aF0
aF0.0067567599999999997
aF0.076923099999999994
aF0.0151515
aF0
aF1
aF0
aF0.037037
aF0.14285700000000001
aF0
aF0
aF0.0067567599999999997
aF0.16666700000000001
aF0
aF0.043478299999999998
aF0
aF0.25
aF0
aF0
aF0
aF0
aF0
aF0
aF0
aF0
aF0
aF0
aF1
aF0
aF0
aF0
aF0
aF0
aF0
aF0
aF0
aF0
aF0
aF0.23749999999999999
aF0
aF0.107143
aF0.054054100000000001
aF0.23880599999999999
aF0.11465
aF0.052631600000000001
aF0.23999999999999999
aF0
aF0.037037
aF0
aF1
aF0.030303
aF0.17241400000000001
aF0.148148
aF0.11465
aF0.064516100000000007
aF0.071999999999999995
aF0.31578899999999999
aF0.088235300000000003
aF0.107143
aF0.025974000000000001
aF0
aF0
aF0.58333299999999999
aF0
aF0.013071899999999999
aF0.538462
aF0.013888899999999999
aF0.14285700000000001
aF0.14285700000000001
aF0
aF0.030303
aF1
aF0
aF0
aF0.013071899999999999
aF0.083333299999999999
aF0
aF0.071428599999999995
aF0
aF0.10000000000000001
aF0.067567600000000005
aF0
aF0.10000000000000001
aF0
aF0.086206900000000003
aF0.0472973
aF0
aF0.073529399999999995
aF0
aF0
aF0
aF0.17241400000000001
aF0
aF1
aF0.57142899999999996
aF0.0472973
aF0
aF0.065420599999999995
aF0.111111
aF0.30769200000000002
aF0
aF0.055555599999999997
aF0
aF0.14285700000000001
aF0
aF0.071428599999999995
aF0.027026999999999999
aF0
aF0.060606100000000003
aF0
aF0
aF0
aF0.148148
aF0
aF0.57142899999999996
aF1
aF0.027026999999999999
aF0
aF0.037383199999999998
aF0.125
aF0.272727
aF0
aF0.202186
aF0
aF0.020134200000000001
aF0.019108300000000002
aF0.13333300000000001
aF1
aF0.018987299999999999
aF0.18232000000000001
aF0.0067567599999999997
aF0.0067567599999999997
aF0
aF0.11465
aF0.013071899999999999
aF0.0472973
aF0.027026999999999999
aF1
aF0.0198675
aF0.72297299999999998
aF0.082278500000000004
aF0.067567600000000005
aF0.027026999999999999
aF0.068493200000000004
aF0
aF0
aF0.058823500000000001
aF0
aF0.0198675
aF0.055555599999999997
aF0.074626899999999996
aF0
aF0.16666700000000001
aF0
aF0.064516100000000007
aF0.083333299999999999
aF0
aF0
aF0.0198675
aF1
aF0.0089285700000000003
aF0.20833299999999999
aF0
aF0.111111
aF0.14743600000000001
aF0
aF0.0090909100000000007
aF0.0084745800000000007
aF0.124138
aF0.72297299999999998
aF0.0084033600000000003
aF0.130719
aF0
aF0
aF0
aF0.071999999999999995
aF0
aF0.065420599999999995
aF0.037383199999999998
aF0.72297299999999998
aF0.0089285700000000003
aF1
aF0.040000000000000001
aF0.093457899999999997
aF0.0090909100000000007
aF0.26666699999999999
aF0
aF0.125
aF0.060606100000000003
aF0.144928
aF0.082278500000000004
aF0.058823500000000001
aF0.253521
aF0.043478299999999998
aF0.043478299999999998
aF0
aF0.31578899999999999
aF0.071428599999999995
aF0.111111
aF0.125
aF0.082278500000000004
aF0.20833299999999999
aF0.040000000000000001
aF1
aF0.10000000000000001
aF0.080000000000000002
aF0.0379747
aF0
aF0.076923099999999994
aF0
aF0.064516100000000007
aF0.067567600000000005
aF0
aF0.041095899999999998
aF0
aF0
aF0
aF0.088235300000000003
aF0
aF0.30769200000000002
aF0.272727
aF0.067567600000000005
aF0
aF0.093457899999999997
aF0.10000000000000001
aF1
aF0
aF0.027026999999999999
aF0
aF0
aF0.066666699999999995
aF0
aF0.027026999999999999
aF0.0625
aF0.029411799999999998
aF0
aF0.25
aF0
aF0.107143
aF0.10000000000000001
aF0
aF0
aF0.027026999999999999
aF0.111111
aF0.0090909100000000007
aF0.080000000000000002
aF0
aF1
atba(lp1166
g10
(g11
(I0
tS'b'
tRp1167
((I1
(I21
tg14
I00
(lp1168
g1147
ag358
ag1148
ag1149
ag1150
ag1151
ag403
ag1152
ag852
ag1153
ag98
ag1154
ag1155
ag99
ag1156
ag1157
ag33
ag1158
ag1159
ag571
ag1160
at(NttbatbbsS'TM_0401'
p1169
g3
(g4
g5
NtRp1170
g3
(g7
g5
NtRp1171
((lp1172
g10
(g11
(I0
tS'b'
tRp1173
((I1
(I8
tg14
I00
(lp1174
S'4TA'
p1175
ag17
ag51
ag117
ag223
aS'THM'
p1176
aS'TMP'
p1177
ag33
at(Nttbag10
(g11
(I0
tS'b'
tRp1178
((I1
(I8
tg14
I00
(lp1179
g1175
ag17
ag51
ag117
ag223
ag1176
ag1177
ag33
at(Nttba(lp1180
g10
(g21
(I0
tS'b'
tRp1181
(I1
(I8
I8
tg14
I00
(lp1182
F1
aF0
aF0.0053763400000000003
aF0.80107499999999998
aF0.71634600000000004
aF0.56989199999999995
aF0.71505399999999997
aF0.0052356
aF0
aF1
aF0
aF0
aF0
aF0
aF0
aF0
aF0.0053763400000000003
aF0
aF1
aF0.0067114100000000001
aF0.0058479500000000002
aF0
aF0
aF0
aF0.80107499999999998
aF0
aF0.0067114100000000001
aF1
aF0.87134500000000004
aF0.43258400000000002
aF0.58426999999999996
aF0.0064935100000000001
aF0.71634600000000004
aF0
aF0.0058479500000000002
aF0.87134500000000004
aF1
aF0.38500000000000001
aF0.52000000000000002
aF0.0056818199999999998
aF0.56989199999999995
aF0
aF0
aF0.43258400000000002
aF0.38500000000000001
aF1
aF0.79699200000000003
aF0
aF0.71505399999999997
aF0
aF0
aF0.58426999999999996
aF0.52000000000000002
aF0.79699200000000003
aF1
aF0
aF0.0052356
aF0
aF0
aF0.0064935100000000001
aF0.0056818199999999998
aF0
aF0
aF1
atba(lp1183
g10
(g11
(I0
tS'b'
tRp1184
((I1
(I8
tg14
I00
(lp1185
g1175
ag17
ag51
ag117
ag223
ag1176
ag1177
ag33
at(NttbatbbsS'TM_0542'
p1186
g3
(g4
g5
NtRp1187
g3
(g7
g5
NtRp1188
((lp1189
g10
(g11
(I0
tS'b'
tRp1190
((I1
(I2
tg14
I00
(lp1191
g164
ag51
at(Nttbag10
(g11
(I0
tS'b'
tRp1192
((I1
(I2
tg14
I00
(lp1193
g164
ag51
at(Nttba(lp1194
g10
(g21
(I0
tS'b'
tRp1195
(I1
(I2
I2
tg14
I00
(lp1196
F1
aF0.0054644799999999999
aF0.0054644799999999999
aF1
atba(lp1197
g10
(g11
(I0
tS'b'
tRp1198
((I1
(I2
tg14
I00
(lp1199
g164
ag51
at(NttbatbbsS'TM_1875'
p1200
g3
(g4
g5
NtRp1201
g3
(g7
g5
NtRp1202
((lp1203
g10
(g11
(I0
tS'b'
tRp1204
((I1
(I2
tg14
I00
(lp1205
g50
ag51
at(Nttbag10
(g11
(I0
tS'b'
tRp1206
((I1
(I2
tg14
I00
(lp1207
g50
ag51
at(Nttba(lp1208
g10
(g21
(I0
tS'b'
tRp1209
(I1
(I2
I2
tg14
I00
(lp1210
F1
aF0
aF0
aF1
atba(lp1211
g10
(g11
(I0
tS'b'
tRp1212
((I1
(I2
tg14
I00
(lp1213
g50
ag51
at(NttbatbbsS'TM_0140'
p1214
g3
(g4
g5
NtRp1215
g3
(g7
g5
NtRp1216
((lp1217
g10
(g11
(I0
tS'b'
tRp1218
((I1
(I2
tg14
I00
(lp1219
g98
ag33
at(Nttbag10
(g11
(I0
tS'b'
tRp1220
((I1
(I2
tg14
I00
(lp1221
g98
ag33
at(Nttba(lp1222
g10
(g21
(I0
tS'b'
tRp1223
(I1
(I2
I2
tg14
I00
(lp1224
F1
aF0
aF0
aF1
atba(lp1225
g10
(g11
(I0
tS'b'
tRp1226
((I1
(I2
tg14
I00
(lp1227
g98
ag33
at(NttbatbbsS'TM_0472'
p1228
g3
(g4
g5
NtRp1229
g3
(g7
g5
NtRp1230
((lp1231
g10
(g11
(I0
tS'b'
tRp1232
((I1
(I2
tg14
I00
(lp1233
S'5RP'
p1234
ag102
at(Nttbag10
(g11
(I0
tS'b'
tRp1235
((I1
(I2
tg14
I00
(lp1236
g1234
ag102
at(Nttba(lp1237
g10
(g21
(I0
tS'b'
tRp1238
(I1
(I2
I2
tg14
I00
(lp1239
F1
aF0.111111
aF0.111111
aF1
atba(lp1240
g10
(g11
(I0
tS'b'
tRp1241
((I1
(I2
tg14
I00
(lp1242
g1234
ag102
at(NttbatbbsS'TM_0473'
p1243
g3
(g4
g5
NtRp1244
g3
(g7
g5
NtRp1245
((lp1246
g10
(g11
(I0
tS'b'
tRp1247
((I1
(I2
tg14
I00
(lp1248
g1234
ag102
at(Nttbag10
(g11
(I0
tS'b'
tRp1249
((I1
(I2
tg14
I00
(lp1250
g1234
ag102
at(Nttba(lp1251
g10
(g21
(I0
tS'b'
tRp1252
(I1
(I2
I2
tg14
I00
(lp1253
F1
aF0.111111
aF0.111111
aF1
atba(lp1254
g10
(g11
(I0
tS'b'
tRp1255
((I1
(I2
tg14
I00
(lp1256
g1234
ag102
at(NttbatbbsS'TM_1766'
p1257
g3
(g4
g5
NtRp1258
g3
(g7
g5
NtRp1259
((lp1260
g10
(g11
(I0
tS'b'
tRp1261
((I1
(I1
tg14
I00
(lp1262
g66
at(Nttbag10
(g11
(I0
tS'b'
tRp1263
((I1
(I1
tg14
I00
(lp1264
g66
at(Nttba(lp1265
g10
(g21
(I0
tS'b'
tRp1266
(I1
(I1
I1
tg14
I00
(lp1267
F1
atba(lp1268
g10
(g11
(I0
tS'b'
tRp1269
((I1
(I1
tg14
I00
(lp1270
g66
at(NttbatbbsS'TM_1077'
p1271
g3
(g4
g5
NtRp1272
g3
(g7
g5
NtRp1273
((lp1274
g10
(g11
(I0
tS'b'
tRp1275
((I1
(I2
tg14
I00
(lp1276
g16
ag51
at(Nttbag10
(g11
(I0
tS'b'
tRp1277
((I1
(I2
tg14
I00
(lp1278
g16
ag51
at(Nttba(lp1279
g10
(g21
(I0
tS'b'
tRp1280
(I1
(I2
I2
tg14
I00
(lp1281
F1
aF0
aF0
aF1
atba(lp1282
g10
(g11
(I0
tS'b'
tRp1283
((I1
(I2
tg14
I00
(lp1284
g16
ag51
at(NttbatbbsS'TM_1250'
p1285
g3
(g4
g5
NtRp1286
g3
(g7
g5
NtRp1287
((lp1288
g10
(g11
(I0
tS'b'
tRp1289
((I1
(I1
tg14
I00
(lp1290
g66
at(Nttbag10
(g11
(I0
tS'b'
tRp1291
((I1
(I1
tg14
I00
(lp1292
g66
at(Nttba(lp1293
g10
(g21
(I0
tS'b'
tRp1294
(I1
(I1
I1
tg14
I00
(lp1295
F1
atba(lp1296
g10
(g11
(I0
tS'b'
tRp1297
((I1
(I1
tg14
I00
(lp1298
g66
at(NttbatbbsS'TM_1415'
p1299
g3
(g4
g5
NtRp1300
g3
(g7
g5
NtRp1301
((lp1302
g10
(g11
(I0
tS'b'
tRp1303
((I1
(I2
tg14
I00
(lp1304
g17
aS'SRT'
p1305
at(Nttbag10
(g11
(I0
tS'b'
tRp1306
((I1
(I2
tg14
I00
(lp1307
g17
ag1305
at(Nttba(lp1308
g10
(g21
(I0
tS'b'
tRp1309
(I1
(I2
I2
tg14
I00
(lp1310
F1
aF0
aF0
aF1
atba(lp1311
g10
(g11
(I0
tS'b'
tRp1312
((I1
(I2
tg14
I00
(lp1313
g17
ag1305
at(NttbatbbsS'TM_1414'
p1314
g3
(g4
g5
NtRp1315
g3
(g7
g5
NtRp1316
((lp1317
g10
(g11
(I0
tS'b'
tRp1318
((I1
(I5
tg14
I00
(lp1319
g146
aS'GLA'
p1320
ag33
aS'SUC'
p1321
ag99
at(Nttbag10
(g11
(I0
tS'b'
tRp1322
((I1
(I5
tg14
I00
(lp1323
g146
ag1320
ag33
ag1321
ag99
at(Nttba(lp1324
g10
(g21
(I0
tS'b'
tRp1325
(I1
(I5
I5
tg14
I00
(lp1326
F1
aF0.26530599999999999
aF0
aF0.213115
aF0.28000000000000003
aF0.26530599999999999
aF1
aF0
aF0.75510200000000005
aF0.189189
aF0
aF0
aF1
aF0
aF0
aF0.213115
aF0.75510200000000005
aF0
aF1
aF0.14285700000000001
aF0.28000000000000003
aF0.189189
aF0
aF0.14285700000000001
aF1
atba(lp1327
g10
(g11
(I0
tS'b'
tRp1328
((I1
(I5
tg14
I00
(lp1329
g146
ag1320
ag33
ag1321
ag99
at(NttbatbbsS'TM_1255'
p1330
g3
(g4
g5
NtRp1331
g3
(g7
g5
NtRp1332
((lp1333
g10
(g11
(I0
tS'b'
tRp1334
((I1
(I2
tg14
I00
(lp1335
g207
ag33
at(Nttbag10
(g11
(I0
tS'b'
tRp1336
((I1
(I2
tg14
I00
(lp1337
g207
ag33
at(Nttba(lp1338
g10
(g21
(I0
tS'b'
tRp1339
(I1
(I2
I2
tg14
I00
(lp1340
F1
aF0.01
aF0.01
aF1
atba(lp1341
g10
(g11
(I0
tS'b'
tRp1342
((I1
(I2
tg14
I00
(lp1343
g207
ag33
at(NttbatbbsS'TM_1410'
p1344
g3
(g4
g5
NtRp1345
g3
(g7
g5
NtRp1346
((lp1347
g10
(g11
(I0
tS'b'
tRp1348
((I1
(I1
tg14
I00
(lp1349
g99
at(Nttbag10
(g11
(I0
tS'b'
tRp1350
((I1
(I1
tg14
I00
(lp1351
g99
at(Nttba(lp1352
g10
(g21
(I0
tS'b'
tRp1353
(I1
(I1
I1
tg14
I00
(lp1354
F1
atba(lp1355
g10
(g11
(I0
tS'b'
tRp1356
((I1
(I1
tg14
I00
(lp1357
g99
at(NttbatbbsS'TM_1097'
p1358
g3
(g4
g5
NtRp1359
g3
(g7
g5
NtRp1360
((lp1361
g10
(g11
(I0
tS'b'
tRp1362
((I1
(I1
tg14
I00
(lp1363
g102
at(Nttbag10
(g11
(I0
tS'b'
tRp1364
((I1
(I1
tg14
I00
(lp1365
g102
at(Nttba(lp1366
g10
(g21
(I0
tS'b'
tRp1367
(I1
(I1
I1
tg14
I00
(lp1368
F1
atba(lp1369
g10
(g11
(I0
tS'b'
tRp1370
((I1
(I1
tg14
I00
(lp1371
g102
at(NttbatbbsS'TM_0385'
p1372
g3
(g4
g5
NtRp1373
g3
(g7
g5
NtRp1374
((lp1375
g10
(g11
(I0
tS'b'
tRp1376
((I1
(I4
tg14
I00
(lp1377
g16
ag146
ag99
ag51
at(Nttbag10
(g11
(I0
tS'b'
tRp1378
((I1
(I4
tg14
I00
(lp1379
g16
ag146
ag99
ag51
at(Nttba(lp1380
g10
(g21
(I0
tS'b'
tRp1381
(I1
(I4
I4
tg14
I00
(lp1382
F1
aF0.23999999999999999
aF0.29999999999999999
aF0
aF0.23999999999999999
aF1
aF0.28000000000000003
aF0
aF0.29999999999999999
aF0.28000000000000003
aF1
aF0
aF0
aF0
aF0
aF1
atba(lp1383
g10
(g11
(I0
tS'b'
tRp1384
((I1
(I4
tg14
I00
(lp1385
g16
ag146
ag99
ag51
at(NttbatbbsS'TM_1419'
p1386
g3
(g4
g5
NtRp1387
g3
(g7
g5
NtRp1388
((lp1389
g10
(g11
(I0
tS'b'
tRp1390
((I1
(I3
tg14
I00
(lp1391
g98
ag17
ag164
at(Nttbag10
(g11
(I0
tS'b'
tRp1392
((I1
(I3
tg14
I00
(lp1393
g98
ag17
ag164
at(Nttba(lp1394
g10
(g21
(I0
tS'b'
tRp1395
(I1
(I3
I3
tg14
I00
(lp1396
F1
aF0
aF0
aF0
aF1
aF0
aF0
aF0
aF1
atba(lp1397
g10
(g11
(I0
tS'b'
tRp1398
((I1
(I3
tg14
I00
(lp1399
g98
ag17
ag164
at(NttbatbbsS'TM_1418'
p1400
g3
(g4
g5
NtRp1401
g3
(g7
g5
NtRp1402
((lp1403
g10
(g11
(I0
tS'b'
tRp1404
((I1
(I4
tg14
I00
(lp1405
S'1KH'
p1406
ag98
ag99
ag102
at(Nttbag10
(g11
(I0
tS'b'
tRp1407
((I1
(I4
tg14
I00
(lp1408
g1406
ag98
ag99
ag102
at(Nttba(lp1409
g10
(g21
(I0
tS'b'
tRp1410
(I1
(I4
I4
tg14
I00
(lp1411
F1
aF0
aF0.16279099999999999
aF0
aF0
aF1
aF0
aF0
aF0.16279099999999999
aF0
aF1
aF0
aF0
aF0
aF0
aF1
atba(lp1412
g10
(g11
(I0
tS'b'
tRp1413
((I1
(I4
tg14
I00
(lp1414
g1406
ag98
ag99
ag102
at(NttbatbbsS'TM_1785'
p1415
g3
(g4
g5
NtRp1416
g3
(g7
g5
NtRp1417
((lp1418
g10
(g11
(I0
tS'b'
tRp1419
((I1
(I3
tg14
I00
(lp1420
g66
ag207
ag99
at(Nttbag10
(g11
(I0
tS'b'
tRp1421
((I1
(I3
tg14
I00
(lp1422
g66
ag207
ag99
at(Nttba(lp1423
g10
(g21
(I0
tS'b'
tRp1424
(I1
(I3
I3
tg14
I00
(lp1425
F1
aF0.03125
aF0.57142899999999996
aF0.03125
aF1
aF0.030303
aF0.57142899999999996
aF0.030303
aF1
atba(lp1426
g10
(g11
(I0
tS'b'
tRp1427
((I1
(I3
tg14
I00
(lp1428
g66
ag207
ag99
at(NttbatbbsS'TM_1784'
p1429
g3
(g4
g5
NtRp1430
g3
(g7
g5
NtRp1431
((lp1432
g10
(g11
(I0
tS'b'
tRp1433
((I1
(I2
tg14
I00
(lp1434
S'K'
aS'NLG'
p1435
at(Nttbag10
(g11
(I0
tS'b'
tRp1436
((I1
(I2
tg14
I00
(lp1437
S'K'
ag1435
at(Nttba(lp1438
g10
(g21
(I0
tS'b'
tRp1439
(I1
(I2
I2
tg14
I00
(lp1440
F1
aF0
aF0
aF1
atba(lp1441
g10
(g11
(I0
tS'b'
tRp1442
((I1
(I2
tg14
I00
(lp1443
S'K'
ag1435
at(NttbatbbsS'TM_0492'
p1444
g3
(g4
g5
NtRp1445
g3
(g7
g5
NtRp1446
((lp1447
g10
(g11
(I0
tS'b'
tRp1448
((I1
(I1
tg14
I00
(lp1449
g403
at(Nttbag10
(g11
(I0
tS'b'
tRp1450
((I1
(I1
tg14
I00
(lp1451
g403
at(Nttba(lp1452
g10
(g21
(I0
tS'b'
tRp1453
(I1
(I1
I1
tg14
I00
(lp1454
F1
atba(lp1455
g10
(g11
(I0
tS'b'
tRp1456
((I1
(I1
tg14
I00
(lp1457
g403
at(NttbatbbsS'TM_1867'
p1458
g3
(g4
g5
NtRp1459
g3
(g7
g5
NtRp1460
((lp1461
g10
(g11
(I0
tS'b'
tRp1462
((I1
(I4
tg14
I00
(lp1463
g709
aS'FBP'
p1464
ag164
aS'OXM'
p1465
at(Nttbag10
(g11
(I0
tS'b'
tRp1466
((I1
(I4
tg14
I00
(lp1467
g709
ag1464
ag164
ag1465
at(Nttba(lp1468
g10
(g21
(I0
tS'b'
tRp1469
(I1
(I4
I4
tg14
I00
(lp1470
F1
aF0
aF0
aF0
aF0
aF1
aF0.30851099999999998
aF0.055555599999999997
aF0
aF0.30851099999999998
aF1
aF0.053763400000000003
aF0
aF0.055555599999999997
aF0.053763400000000003
aF1
atba(lp1471
g10
(g11
(I0
tS'b'
tRp1472
((I1
(I4
tg14
I00
(lp1473
g709
ag1464
ag164
ag1465
at(NttbatbbsS'TM_0446'
p1474
g3
(g4
g5
NtRp1475
g3
(g7
g5
NtRp1476
((lp1477
g10
(g11
(I0
tS'b'
tRp1478
((I1
(I1
tg14
I00
(lp1479
g33
at(Nttbag10
(g11
(I0
tS'b'
tRp1480
((I1
(I1
tg14
I00
(lp1481
g33
at(Nttba(lp1482
g10
(g21
(I0
tS'b'
tRp1483
(I1
(I1
I1
tg14
I00
(lp1484
F1
atba(lp1485
g10
(g11
(I0
tS'b'
tRp1486
((I1
(I1
tg14
I00
(lp1487
g33
at(NttbatbbsS'TM_0889'
p1488
g3
(g4
g5
NtRp1489
g3
(g7
g5
NtRp1490
((lp1491
g10
(g11
(I0
tS'b'
tRp1492
((I1
(I4
tg14
I00
(lp1493
S'FOM'
p1494
ag17
ag388
ag49
at(Nttbag10
(g11
(I0
tS'b'
tRp1495
((I1
(I4
tg14
I00
(lp1496
g1494
ag17
ag388
ag49
at(Nttba(lp1497
g10
(g21
(I0
tS'b'
tRp1498
(I1
(I4
I4
tg14
I00
(lp1499
F1
aF0.023809500000000001
aF0.085714299999999993
aF0.0408163
aF0.023809500000000001
aF1
aF0
aF0
aF0.085714299999999993
aF0
aF1
aF0.040178600000000002
aF0.0408163
aF0
aF0.040178600000000002
aF1
atba(lp1500
g10
(g11
(I0
tS'b'
tRp1501
((I1
(I4
tg14
I00
(lp1502
g1494
ag17
ag388
ag49
at(NttbatbbsS'TM_1387'
p1503
g3
(g4
g5
NtRp1504
g3
(g7
g5
NtRp1505
((lp1506
g10
(g11
(I0
tS'b'
tRp1507
((I1
(I3
tg14
I00
(lp1508
g117
ag98
aS'COD'
p1509
at(Nttbag10
(g11
(I0
tS'b'
tRp1510
((I1
(I3
tg14
I00
(lp1511
g117
ag98
ag1509
at(Nttba(lp1512
g10
(g21
(I0
tS'b'
tRp1513
(I1
(I3
I3
tg14
I00
(lp1514
F1
aF0
aF0.82320400000000005
aF0
aF1
aF0
aF0.82320400000000005
aF0
aF1
atba(lp1515
g10
(g11
(I0
tS'b'
tRp1516
((I1
(I3
tg14
I00
(lp1517
g117
ag98
ag1509
at(NttbatbbsS'TM_1385'
p1518
g3
(g4
g5
NtRp1519
g3
(g7
g5
NtRp1520
((lp1521
g10
(g11
(I0
tS'b'
tRp1522
((I1
(I3
tg14
I00
(lp1523
g565
ag98
ag33
at(Nttbag10
(g11
(I0
tS'b'
tRp1524
((I1
(I3
tg14
I00
(lp1525
g565
ag98
ag33
at(Nttba(lp1526
g10
(g21
(I0
tS'b'
tRp1527
(I1
(I3
I3
tg14
I00
(lp1528
F1
aF0
aF0
aF0
aF1
aF0
aF0
aF0
aF1
atba(lp1529
g10
(g11
(I0
tS'b'
tRp1530
((I1
(I3
tg14
I00
(lp1531
g565
ag98
ag33
at(NttbatbbsS'TM_0024'
p1532
g3
(g4
g5
NtRp1533
g3
(g7
g5
NtRp1534
((lp1535
g10
(g11
(I0
tS'b'
tRp1536
((I1
(I7
tg14
I00
(lp1537
S'16A'
p1538
ag82
ag81
ag99
ag98
ag33
aS'LGC'
p1539
at(Nttbag10
(g11
(I0
tS'b'
tRp1540
((I1
(I7
tg14
I00
(lp1541
g1538
ag82
ag81
ag99
ag98
ag33
ag1539
at(Nttba(lp1542
g10
(g21
(I0
tS'b'
tRp1543
(I1
(I7
I7
tg14
I00
(lp1544
F1
aF0
aF0.10204100000000001
aF0.090909100000000007
aF0
aF0
aF0.084745799999999996
aF0
aF1
aF0
aF0
aF0
aF0
aF0
aF0.10204100000000001
aF0
aF1
aF0.189189
aF0
aF0
aF0.55555600000000005
aF0.090909100000000007
aF0
aF0.189189
aF1
aF0
aF0
aF0.14893600000000001
aF0
aF0
aF0
aF0
aF1
aF0
aF0
aF0
aF0
aF0
aF0
aF0
aF1
aF0
aF0.084745799999999996
aF0
aF0.55555600000000005
aF0.14893600000000001
aF0
aF0
aF1
atba(lp1545
g10
(g11
(I0
tS'b'
tRp1546
((I1
(I7
tg14
I00
(lp1547
g1538
ag82
ag81
ag99
ag98
ag33
ag1539
at(NttbatbbsS'TM_0252'
p1548
g3
(g4
g5
NtRp1549
g3
(g7
g5
NtRp1550
((lp1551
g10
(g11
(I0
tS'b'
tRp1552
((I1
(I2
tg14
I00
(lp1553
g50
ag51
at(Nttbag10
(g11
(I0
tS'b'
tRp1554
((I1
(I2
tg14
I00
(lp1555
g50
ag51
at(Nttba(lp1556
g10
(g21
(I0
tS'b'
tRp1557
(I1
(I2
I2
tg14
I00
(lp1558
F1
aF0
aF0
aF1
atba(lp1559
g10
(g11
(I0
tS'b'
tRp1560
((I1
(I2
tg14
I00
(lp1561
g50
ag51
at(NttbatbbsS'TM_1662'
p1562
g3
(g4
g5
NtRp1563
g3
(g7
g5
NtRp1564
((lp1565
g10
(g11
(I0
tS'b'
tRp1566
((I1
(I6
tg14
I00
(lp1567
g82
ag572
aS'WO4'
p1568
aS'VO4'
p1569
ag17
ag33
at(Nttbag10
(g11
(I0
tS'b'
tRp1570
((I1
(I6
tg14
I00
(lp1571
g82
ag572
ag1568
ag1569
ag17
ag33
at(Nttba(lp1572
g10
(g21
(I0
tS'b'
tRp1573
(I1
(I6
I6
tg14
I00
(lp1574
F1
aF0
aF0
aF0
aF0
aF0
aF0
aF1
aF0
aF0
aF0
aF0.125
aF0
aF0
aF1
aF0
aF0
aF0
aF0
aF0
aF0
aF1
aF0
aF0
aF0
aF0
aF0
aF0
aF1
aF0
aF0
aF0.125
aF0
aF0
aF0
aF1
atba(lp1575
g10
(g11
(I0
tS'b'
tRp1576
((I1
(I6
tg14
I00
(lp1577
g82
ag572
ag1568
ag1569
ag17
ag33
at(NttbatbbsS'TM_0561'
p1578
g3
(g4
g5
NtRp1579
g3
(g7
g5
NtRp1580
((lp1581
g10
(g11
(I0
tS'b'
tRp1582
((I1
(I8
tg14
I00
(lp1583
g82
ag98
aS'LMT'
p1584
ag17
ag571
aS'PG0'
p1585
aS'CS'
p1586
aS'DMU'
p1587
at(Nttbag10
(g11
(I0
tS'b'
tRp1588
((I1
(I8
tg14
I00
(lp1589
g82
ag98
ag1584
ag17
ag571
ag1585
ag1586
ag1587
at(Nttba(lp1590
g10
(g21
(I0
tS'b'
tRp1591
(I1
(I8
I8
tg14
I00
(lp1592
F1
aF0
aF0
aF0
aF0
aF0
aF0
aF0
aF0
aF1
aF0
aF0
aF0
aF0
aF0
aF0
aF0
aF0
aF1
aF0
aF0.20833299999999999
aF0.25
aF0.020833299999999999
aF1
aF0
aF0
aF0
aF1
aF0
aF0
aF0
aF0
aF0
aF0
aF0.20833299999999999
aF0
aF1
aF0.83333299999999999
aF0
aF0.20833299999999999
aF0
aF0
aF0.25
aF0
aF0.83333299999999999
aF1
aF0
aF0.25
aF0
aF0
aF0.020833299999999999
aF0
aF0
aF0
aF1
aF0.020833299999999999
aF0
aF0
aF1
aF0
aF0.20833299999999999
aF0.25
aF0.020833299999999999
aF1
atba(lp1593
g10
(g11
(I0
tS'b'
tRp1594
((I1
(I8
tg14
I00
(lp1595
g82
ag98
ag1584
ag17
ag571
ag1585
ag1586
ag1587
at(NttbatbbsS'TM_0421'
p1596
g3
(g4
g5
NtRp1597
g3
(g7
g5
NtRp1598
((lp1599
g10
(g11
(I0
tS'b'
tRp1600
((I1
(I2
tg14
I00
(lp1601
g571
ag33
at(Nttbag10
(g11
(I0
tS'b'
tRp1602
((I1
(I2
tg14
I00
(lp1603
g571
ag33
at(Nttba(lp1604
g10
(g21
(I0
tS'b'
tRp1605
(I1
(I2
I2
tg14
I00
(lp1606
F1
aF0
aF0
aF1
atba(lp1607
g10
(g11
(I0
tS'b'
tRp1608
((I1
(I2
tg14
I00
(lp1609
g571
ag33
at(NttbatbbsS'TM_1088'
p1610
g3
(g4
g5
NtRp1611
g3
(g7
g5
NtRp1612
((lp1613
g10
(g11
(I0
tS'b'
tRp1614
((I1
(I2
tg14
I00
(lp1615
g753
aS'UNX'
p1616
at(Nttbag10
(g11
(I0
tS'b'
tRp1617
((I1
(I2
tg14
I00
(lp1618
g753
ag1616
at(Nttba(lp1619
g10
(g21
(I0
tS'b'
tRp1620
(I1
(I2
I2
tg14
I00
(lp1621
F1
aNaNaNatba(lp1622
g10
(g11
(I0
tS'b'
tRp1623
((I1
(I2
tg14
I00
(lp1624
g753
ag1616
at(NttbatbbsS'TM_0139'
p1625
g3
(g4
g5
NtRp1626
g3
(g7
g5
NtRp1627
((lp1628
g10
(g11
(I0
tS'b'
tRp1629
((I1
(I3
tg14
I00
(lp1630
S'137'
p1631
ag102
ag33
at(Nttbag10
(g11
(I0
tS'b'
tRp1632
((I1
(I3
tg14
I00
(lp1633
g1631
ag102
ag33
at(Nttba(lp1634
g10
(g21
(I0
tS'b'
tRp1635
(I1
(I3
I3
tg14
I00
(lp1636
F1
aF0.050505099999999997
aF0
aF0.050505099999999997
aF1
aF0
aF0
aF0
aF1
atba(lp1637
g10
(g11
(I0
tS'b'
tRp1638
((I1
(I3
tg14
I00
(lp1639
g1631
ag102
ag33
at(NttbatbbsS'TM_0295'
p1640
g3
(g4
g5
NtRp1641
g3
(g7
g5
NtRp1642
((lp1643
g10
(g11
(I0
tS'b'
tRp1644
((I1
(I2
tg14
I00
(lp1645
g99
ag33
at(Nttbag10
(g11
(I0
tS'b'
tRp1646
((I1
(I2
tg14
I00
(lp1647
g99
ag33
at(Nttba(lp1648
g10
(g21
(I0
tS'b'
tRp1649
(I1
(I2
I2
tg14
I00
(lp1650
F1
aF0
aF0
aF1
atba(lp1651
g10
(g11
(I0
tS'b'
tRp1652
((I1
(I2
tg14
I00
(lp1653
g99
ag33
at(NttbatbbsS'TM_0814'
p1654
g3
(g4
g5
NtRp1655
g3
(g7
g5
NtRp1656
((lp1657
g10
(g11
(I0
tS'b'
tRp1658
((I1
(I1
tg14
I00
(lp1659
g852
at(Nttbag10
(g11
(I0
tS'b'
tRp1660
((I1
(I1
tg14
I00
(lp1661
g852
at(Nttba(lp1662
g10
(g21
(I0
tS'b'
tRp1663
(I1
(I1
I1
tg14
I00
(lp1664
F1
atba(lp1665
g10
(g11
(I0
tS'b'
tRp1666
((I1
(I1
tg14
I00
(lp1667
g852
at(NttbatbbsS'TM_1249'
p1668
g3
(g4
g5
NtRp1669
g3
(g7
g5
NtRp1670
((lp1671
g10
(g11
(I0
tS'b'
tRp1672
((I1
(I2
tg14
I00
(lp1673
S'K'
ag328
at(Nttbag10
(g11
(I0
tS'b'
tRp1674
((I1
(I2
tg14
I00
(lp1675
S'K'
ag328
at(Nttba(lp1676
g10
(g21
(I0
tS'b'
tRp1677
(I1
(I2
I2
tg14
I00
(lp1678
F1
aF0
aF0
aF1
atba(lp1679
g10
(g11
(I0
tS'b'
tRp1680
((I1
(I2
tg14
I00
(lp1681
S'K'
ag328
at(NttbatbbsS'TM_1080'
p1682
g3
(g4
g5
NtRp1683
g3
(g7
g5
NtRp1684
((lp1685
g10
(g11
(I0
tS'b'
tRp1686
((I1
(I2
tg14
I00
(lp1687
g49
aS'OCS'
p1688
at(Nttbag10
(g11
(I0
tS'b'
tRp1689
((I1
(I2
tg14
I00
(lp1690
g49
ag1688
at(Nttba(lp1691
g10
(g21
(I0
tS'b'
tRp1692
(I1
(I2
I2
tg14
I00
(lp1693
F1
aF0.125
aF0.125
aF1
atba(lp1694
g10
(g11
(I0
tS'b'
tRp1695
((I1
(I2
tg14
I00
(lp1696
g49
ag1688
at(NttbatbbsS'TM_1839'
p1697
g3
(g4
g5
NtRp1698
g3
(g7
g5
NtRp1699
((lp1700
g10
(g11
(I0
tS'b'
tRp1701
((I1
(I1
tg14
I00
(lp1702
g1042
at(Nttbag10
(g11
(I0
tS'b'
tRp1703
((I1
(I1
tg14
I00
(lp1704
g1042
at(Nttba(lp1705
g10
(g21
(I0
tS'b'
tRp1706
(I1
(I1
I1
tg14
I00
(lp1707
F1
atba(lp1708
g10
(g11
(I0
tS'b'
tRp1709
((I1
(I1
tg14
I00
(lp1710
g1042
at(NttbatbbsS'TM_1244'
p1711
g3
(g4
g5
NtRp1712
g3
(g7
g5
NtRp1713
((lp1714
g10
(g11
(I0
tS'b'
tRp1715
((I1
(I2
tg14
I00
(lp1716
g117
ag1132
at(Nttbag10
(g11
(I0
tS'b'
tRp1717
((I1
(I2
tg14
I00
(lp1718
g117
ag1132
at(Nttba(lp1719
g10
(g21
(I0
tS'b'
tRp1720
(I1
(I2
I2
tg14
I00
(lp1721
F1
aF0.082901600000000006
aF0.082901600000000006
aF1
atba(lp1722
g10
(g11
(I0
tS'b'
tRp1723
((I1
(I2
tg14
I00
(lp1724
g117
ag1132
at(NttbatbbsS'TM_1245'
p1725
g3
(g4
g5
NtRp1726
g3
(g7
g5
NtRp1727
((lp1728
g10
(g11
(I0
tS'b'
tRp1729
((I1
(I2
tg14
I00
(lp1730
g117
ag1132
at(Nttbag10
(g11
(I0
tS'b'
tRp1731
((I1
(I2
tg14
I00
(lp1732
g117
ag1132
at(Nttba(lp1733
g10
(g21
(I0
tS'b'
tRp1734
(I1
(I2
I2
tg14
I00
(lp1735
F1
aF0.082901600000000006
aF0.082901600000000006
aF1
atba(lp1736
g10
(g11
(I0
tS'b'
tRp1737
((I1
(I2
tg14
I00
(lp1738
g117
ag1132
at(NttbatbbsS'TM_0015'
p1739
g3
(g4
g5
NtRp1740
g3
(g7
g5
NtRp1741
((lp1742
g10
(g11
(I0
tS'b'
tRp1743
((I1
(I1
tg14
I00
(lp1744
g33
at(Nttbag10
(g11
(I0
tS'b'
tRp1745
((I1
(I1
tg14
I00
(lp1746
g33
at(Nttba(lp1747
g10
(g21
(I0
tS'b'
tRp1748
(I1
(I1
I1
tg14
I00
(lp1749
F1
atba(lp1750
g10
(g11
(I0
tS'b'
tRp1751
((I1
(I1
tg14
I00
(lp1752
g33
at(NttbatbbsS'TM_0958'
p1753
g3
(g4
g5
NtRp1754
g3
(g7
g5
NtRp1755
((lp1756
g10
(g11
(I0
tS'b'
tRp1757
((I1
(I1
tg14
I00
(lp1758
S'RIP'
p1759
at(Nttbag10
(g11
(I0
tS'b'
tRp1760
((I1
(I1
tg14
I00
(lp1761
g1759
at(Nttba(lp1762
g10
(g21
(I0
tS'b'
tRp1763
(I1
(I1
I1
tg14
I00
(lp1764
F1
atba(lp1765
g10
(g11
(I0
tS'b'
tRp1766
((I1
(I1
tg14
I00
(lp1767
g1759
at(NttbatbbsS'TM_0378'
p1768
g3
(g4
g5
NtRp1769
g3
(g7
g5
NtRp1770
((lp1771
g10
(g11
(I0
tS'b'
tRp1772
((I1
(I5
tg14
I00
(lp1773
S'G3H'
p1774
aS'G3P'
p1775
ag49
aS'MRD'
p1776
ag388
at(Nttbag10
(g11
(I0
tS'b'
tRp1777
((I1
(I5
tg14
I00
(lp1778
g1774
ag1775
ag49
ag1776
ag388
at(Nttba(lp1779
g10
(g21
(I0
tS'b'
tRp1780
(I1
(I5
I5
tg14
I00
(lp1781
F1
aF0.65714300000000003
aF0.14285700000000001
aF0.14285700000000001
aF0.113537
aF0.65714300000000003
aF1
aF0.20000000000000001
aF0.20000000000000001
aF0.120536
aF0.14285700000000001
aF0.20000000000000001
aF1
aF1
aF0.040178600000000002
aF0.14285700000000001
aF0.20000000000000001
aF1
aF1
aF0.040178600000000002
aF0.113537
aF0.120536
aF0.040178600000000002
aF0.040178600000000002
aF1
atba(lp1782
g10
(g11
(I0
tS'b'
tRp1783
((I1
(I5
tg14
I00
(lp1784
g1774
ag1775
ag49
ag1776
ag388
at(NttbatbbsS'TM_1393'
p1785
g3
(g4
g5
NtRp1786
g3
(g7
g5
NtRp1787
((lp1788
g10
(g11
(I0
tS'b'
tRp1789
((I1
(I3
tg14
I00
(lp1790
g267
aS'CTP'
p1791
ag17
at(Nttbag10
(g11
(I0
tS'b'
tRp1792
((I1
(I3
tg14
I00
(lp1793
g267
ag1791
ag17
at(Nttba(lp1794
g10
(g21
(I0
tS'b'
tRp1795
(I1
(I3
I3
tg14
I00
(lp1796
F1
aF0.032051299999999998
aF0
aF0.032051299999999998
aF1
aF0
aF0
aF0
aF1
atba(lp1797
g10
(g11
(I0
tS'b'
tRp1798
((I1
(I3
tg14
I00
(lp1799
g267
ag1791
ag17
at(NttbatbbsS'TM_0306'
p1800
g3
(g4
g5
NtRp1801
g3
(g7
g5
NtRp1802
((lp1803
g10
(g11
(I0
tS'b'
tRp1804
((I1
(I14
tg14
I00
(lp1805
S'FUC'
p1806
aS'FUY'
p1807
aS'FUF'
p1808
aS'KCX'
p1809
aS'FUL'
p1810
aS'ZWZ'
p1811
aS'ZX5'
p1812
aS'ZX6'
p1813
aS'ZX7'
p1814
aS'ZX8'
p1815
aS'ZX9'
p1816
aS'ZXA'
p1817
aS'ZXB'
p1818
aS'ZXD'
p1819
at(Nttbag10
(g11
(I0
tS'b'
tRp1820
((I1
(I14
tg14
I00
(lp1821
g1806
ag1807
ag1808
ag1809
ag1810
ag1811
ag1812
ag1813
ag1814
ag1815
ag1816
ag1817
ag1818
ag1819
at(Nttba(lp1822
g10
(g21
(I0
tS'b'
tRp1823
(I1
(I14
I14
tg14
I00
(lp1824
F1
aF0.381579
aF0.70588200000000001
aF0.16176499999999999
aF1
aF0.17647099999999999
aF0.110294
aF0.109489
aF0.100719
aF0.097222199999999995
aF0.122807
aF0.148148
aF0.170455
aF0.206349
aF0.381579
aF1
aF0.31111100000000003
aF0.208791
aF0.381579
aF0.32142900000000002
aF0.18954199999999999
aF0.18831200000000001
aF0.18709700000000001
aF0.18124999999999999
aF0.223077
aF0.27835100000000002
aF0.26415100000000002
aF0.320988
aF0.70588200000000001
aF0.31111100000000003
aF1
aF0.19480500000000001
aF0.70588200000000001
aF0.19230800000000001
aF0.15493000000000001
aF0.14583299999999999
aF0.12925200000000001
aF0.125
aF0.17499999999999999
aF0.17777799999999999
aF0.221053
aF0.21917800000000001
aF0.16176499999999999
aF0.208791
aF0.19480500000000001
aF1
aF0.16176499999999999
aF0.328125
aF0.248
aF0.23622000000000001
aF0.234375
aF0.26356600000000002
aF0.33000000000000002
aF0.42029
aF0.25581399999999999
aF0.37288100000000002
aF1
aF0.381579
aF0.70588200000000001
aF0.16176499999999999
aF1
aF0.17647099999999999
aF0.110294
aF0.109489
aF0.100719
aF0.097222199999999995
aF0.122807
aF0.148148
aF0.170455
aF0.206349
aF0.17647099999999999
aF0.32142900000000002
aF0.19230800000000001
aF0.328125
aF0.17647099999999999
aF1
aF0.377193
aF0.373913
aF0.37069000000000002
aF0.35537200000000002
aF0.47252699999999997
aF0.76785700000000001
aF0.51388900000000004
aF0.82222200000000001
aF0.110294
aF0.18954199999999999
aF0.15493000000000001
aF0.248
aF0.110294
aF0.377193
aF1
aF0.78906200000000004
aF0.58620700000000003
aF0.46875
aF0.61417299999999997
aF0.491228
aF0.46341500000000002
aF0.33043499999999998
aF0.109489
aF0.18831200000000001
aF0.14583299999999999
aF0.23622000000000001
aF0.109489
aF0.373913
aF0.78906200000000004
aF1
aF0.59310300000000005
aF0.45678999999999997
aF0.64800000000000002
aF0.48695699999999997
aF0.47154499999999999
aF0.32758599999999999
aF0.100719
aF0.18709700000000001
aF0.12925200000000001
aF0.234375
aF0.100719
aF0.37069000000000002
aF0.58620700000000003
aF0.59310300000000005
aF1
aF0.53896100000000002
aF0.489209
aF0.48275899999999999
aF0.368421
aF0.31355899999999998
aF0.097222199999999995
aF0.18124999999999999
aF0.125
aF0.26356600000000002
aF0.097222199999999995
aF0.35537200000000002
aF0.46875
aF0.45678999999999997
aF0.53896100000000002
aF1
aF0.51428600000000002
aF0.46281
aF0.34532400000000002
aF0.300813
aF0.122807
aF0.223077
aF0.17499999999999999
aF0.33000000000000002
aF0.122807
aF0.47252699999999997
aF0.61417299999999997
aF0.64800000000000002
aF0.489209
aF0.51428600000000002
aF1
aF0.61538499999999996
aF0.68817200000000001
aF0.41304299999999999
aF0.148148
aF0.27835100000000002
aF0.17777799999999999
aF0.42029
aF0.148148
aF0.76785700000000001
aF0.491228
aF0.48695699999999997
aF0.48275899999999999
aF0.46281
aF0.61538499999999996
aF1
aF0.43529400000000001
aF0.63793100000000003
aF0.170455
aF0.26415100000000002
aF0.221053
aF0.25581399999999999
aF0.170455
aF0.51388900000000004
aF0.46341500000000002
aF0.47154499999999999
aF0.368421
aF0.34532400000000002
aF0.68817200000000001
aF0.43529400000000001
aF1
aF0.59090900000000002
aF0.206349
aF0.320988
aF0.21917800000000001
aF0.37288100000000002
aF0.206349
aF0.82222200000000001
aF0.33043499999999998
aF0.32758599999999999
aF0.31355899999999998
aF0.300813
aF0.41304299999999999
aF0.63793100000000003
aF0.59090900000000002
aF1
atba(lp1825
g10
(g11
(I0
tS'b'
tRp1826
((I1
(I14
tg14
I00
(lp1827
g1806
ag1807
ag1808
ag1809
ag1810
ag1811
ag1812
ag1813
ag1814
ag1815
ag1816
ag1817
ag1818
ag1819
at(NttbatbbsS'TM_1397'
p1828
g3
(g4
g5
NtRp1829
g3
(g7
g5
NtRp1830
((lp1831
g10
(g11
(I0
tS'b'
tRp1832
((I1
(I4
tg14
I00
(lp1833
S'BNG'
p1834
aS'HG'
p1835
ag17
aS'K'
at(Nttbag10
(g11
(I0
tS'b'
tRp1836
((I1
(I4
tg14
I00
(lp1837
g1834
ag1835
ag17
aS'K'
at(Nttba(lp1838
g10
(g21
(I0
tS'b'
tRp1839
(I1
(I4
I4
tg14
I00
(lp1840
F1
aF0
aF0
aF0
aF0
aF1
aF0
aF0
aF0
aF0
aF1
aF0
aF0
aF0
aF0
aF1
atba(lp1841
g10
(g11
(I0
tS'b'
tRp1842
((I1
(I4
tg14
I00
(lp1843
g1834
ag1835
ag17
aS'K'
at(NttbatbbsS'TM_1154'
p1844
g3
(g4
g5
NtRp1845
g3
(g7
g5
NtRp1846
((lp1847
g10
(g11
(I0
tS'b'
tRp1848
((I1
(I5
tg14
I00
(lp1849
g146
ag66
ag605
ag33
ag590
at(Nttbag10
(g11
(I0
tS'b'
tRp1850
((I1
(I5
tg14
I00
(lp1851
g146
ag66
ag605
ag33
ag590
at(Nttba(lp1852
g10
(g21
(I0
tS'b'
tRp1853
(I1
(I5
I5
tg14
I00
(lp1854
F1
aF0.16
aF0.12
aF0
aF0.214286
aF0.16
aF1
aF0.16666700000000001
aF0
aF0.29999999999999999
aF0.12
aF0.16666700000000001
aF1
aF0
aF0.090909100000000007
aF0
aF0
aF0
aF1
aF0
aF0.214286
aF0.29999999999999999
aF0.090909100000000007
aF0
aF1
atba(lp1855
g10
(g11
(I0
tS'b'
tRp1856
((I1
(I5
tg14
I00
(lp1857
g146
ag66
ag605
ag33
ag590
at(NttbatbbsS'TM_0883'
p1858
g3
(g4
g5
NtRp1859
g3
(g7
g5
NtRp1860
((lp1861
g10
(g11
(I0
tS'b'
tRp1862
((I1
(I5
tg14
I00
(lp1863
g117
aS'PAU'
p1864
ag17
aS'PAZ'
p1865
ag102
at(Nttbag10
(g11
(I0
tS'b'
tRp1866
((I1
(I5
tg14
I00
(lp1867
g117
ag1864
ag17
ag1865
ag102
at(Nttba(lp1868
g10
(g21
(I0
tS'b'
tRp1869
(I1
(I5
I5
tg14
I00
(lp1870
F1
aF0.12790699999999999
aF0
aF0.23563200000000001
aF0.033556999999999997
aF0.12790699999999999
aF1
aF0
aF0.68181800000000004
aF0
aF0
aF0
aF1
aF0
aF0
aF0.23563200000000001
aF0.68181800000000004
aF0
aF1
aF0.075757599999999994
aF0.033556999999999997
aF0
aF0
aF0.075757599999999994
aF1
atba(lp1871
g10
(g11
(I0
tS'b'
tRp1872
((I1
(I5
tg14
I00
(lp1873
g117
ag1864
ag17
ag1865
ag102
at(NttbatbbsS'TM_0654'
p1874
g3
(g4
g5
NtRp1875
g3
(g7
g5
NtRp1876
((lp1877
g10
(g11
(I0
tS'b'
tRp1878
((I1
(I1
tg14
I00
(lp1879
S'AAT'
p1880
at(Nttbag10
(g11
(I0
tS'b'
tRp1881
((I1
(I1
tg14
I00
(lp1882
g1880
at(Nttba(lp1883
g10
(g21
(I0
tS'b'
tRp1884
(I1
(I1
I1
tg14
I00
(lp1885
F1
atba(lp1886
g10
(g11
(I0
tS'b'
tRp1887
((I1
(I1
tg14
I00
(lp1888
g1880
at(NttbatbbsS'TM_0655'
p1889
g3
(g4
g5
NtRp1890
g3
(g7
g5
NtRp1891
((lp1892
g10
(g11
(I0
tS'b'
tRp1893
((I1
(I4
tg14
I00
(lp1894
g66
aS'M2T'
p1895
ag461
aS'SMM'
p1896
at(Nttbag10
(g11
(I0
tS'b'
tRp1897
((I1
(I4
tg14
I00
(lp1898
g66
ag1895
ag461
ag1896
at(Nttba(lp1899
g10
(g21
(I0
tS'b'
tRp1900
(I1
(I4
I4
tg14
I00
(lp1901
F1
aF0.0305344
aF0.25
aF0.026490099999999999
aF0.0305344
aF1
aF0.051851899999999999
aF0.86755000000000004
aF0.25
aF0.051851899999999999
aF1
aF0.065789500000000001
aF0.026490099999999999
aF0.86755000000000004
aF0.065789500000000001
aF1
atba(lp1902
g10
(g11
(I0
tS'b'
tRp1903
((I1
(I4
tg14
I00
(lp1904
g66
ag1895
ag461
ag1896
at(NttbatbbsS'TM_1095'
p1905
g3
(g4
g5
NtRp1906
g3
(g7
g5
NtRp1907
((lp1908
g10
(g11
(I0
tS'b'
tRp1909
((I1
(I1
tg14
I00
(lp1910
g33
at(Nttbag10
(g11
(I0
tS'b'
tRp1911
((I1
(I1
tg14
I00
(lp1912
g33
at(Nttba(lp1913
g10
(g21
(I0
tS'b'
tRp1914
(I1
(I1
I1
tg14
I00
(lp1915
F1
atba(lp1916
g10
(g11
(I0
tS'b'
tRp1917
((I1
(I1
tg14
I00
(lp1918
g33
at(NttbatbbsS'TM_0556'
p1919
g3
(g4
g5
NtRp1920
g3
(g7
g5
NtRp1921
((lp1922
g10
(g11
(I0
tS'b'
tRp1923
((I1
(I1
tg14
I00
(lp1924
g98
at(Nttbag10
(g11
(I0
tS'b'
tRp1925
((I1
(I1
tg14
I00
(lp1926
g98
at(Nttba(lp1927
g10
(g21
(I0
tS'b'
tRp1928
(I1
(I1
I1
tg14
I00
(lp1929
F1
atba(lp1930
g10
(g11
(I0
tS'b'
tRp1931
((I1
(I1
tg14
I00
(lp1932
g98
at(Nttbatbbs.