(dp1
S'GLYCL_2'
p2
ccopy_reg
_reconstructor
p3
(cpandas.core.frame
DataFrame
p4
c__builtin__
object
p5
NtRp6
g3
(cpandas.core.internals
BlockManager
p7
g5
NtRp8
((lp9
cnumpy.core.multiarray
_reconstruct
p10
(cpandas.core.index
Index
p11
(I0
tS'b'
tRp12
((I1
(I3
tcnumpy
dtype
p13
(S'O8'
I0
I1
tRp14
(I3
S'|'
NNNI-1
I-1
I63
tbI00
(lp15
S'FFO'
p16
aS'RED'
p17
aS'THG'
p18
at(Nttbag10
(g11
(I0
tS'b'
tRp19
((I1
(I3
tg14
I00
(lp20
g16
ag17
ag18
at(Nttba(lp21
g10
(cnumpy
ndarray
p22
(I0
tS'b'
tRp23
(I1
(I3
I3
tg14
I00
(lp24
F1
aF0.081521700000000002
aF0.95930199999999999
aF0.081521700000000002
aF1
aF0.084745799999999996
aF0.95930199999999999
aF0.084745799999999996
aF1
atba(lp25
g10
(g11
(I0
tS'b'
tRp26
((I1
(I3
tg14
I00
(lp27
g16
ag17
ag18
at(NttbatbbsS'GLNTRAT'
p28
g3
(g4
g5
NtRp29
g3
(g7
g5
NtRp30
((lp31
g10
(g11
(I0
tS'b'
tRp32
((I1
(I4
tg14
I00
(lp33
S'ACT'
p34
aS'MPD'
p35
aS'GSU'
p36
aS'ZN'
p37
at(Nttbag10
(g11
(I0
tS'b'
tRp38
((I1
(I4
tg14
I00
(lp39
g34
ag35
ag36
ag37
at(Nttba(lp40
g10
(g22
(I0
tS'b'
tRp41
(I1
(I4
I4
tg14
I00
(lp42
F1
aF0.25
aF0.034883699999999997
aF0
aF0.25
aF1
aF0.0523256
aF0
aF0.034883699999999997
aF0.0523256
aF1
aF0
aF0
aF0
aF0
aF1
atba(lp43
g10
(g11
(I0
tS'b'
tRp44
((I1
(I4
tg14
I00
(lp45
g34
ag35
ag36
ag37
at(NttbatbbsS'AIRCr'
p46
g3
(g4
g5
NtRp47
g3
(g7
g5
NtRp48
((lp49
g10
(g11
(I0
tS'b'
tRp50
((I1
(I2
tg14
I00
(lp51
S'ADP'
p52
aS'SO4'
p53
at(Nttbag10
(g11
(I0
tS'b'
tRp54
((I1
(I2
tg14
I00
(lp55
g52
ag53
at(Nttba(lp56
g10
(g22
(I0
tS'b'
tRp57
(I1
(I2
I2
tg14
I00
(lp58
F1
aF0.0064935100000000001
aF0.0064935100000000001
aF1
atba(lp59
g10
(g11
(I0
tS'b'
tRp60
((I1
(I2
tg14
I00
(lp61
g52
ag53
at(NttbatbbsS'NTD10'
p62
g3
(g4
g5
NtRp63
g3
(g7
g5
NtRp64
((lp65
g10
(g11
(I0
tS'b'
tRp66
((I1
(I6
tg14
I00
(lp67
S'CA'
p68
aS'EPE'
p69
aS'WO4'
p70
aS'VO4'
p71
aS'MG'
p72
ag53
at(Nttbag10
(g11
(I0
tS'b'
tRp73
((I1
(I6
tg14
I00
(lp74
g68
ag69
ag70
ag71
ag72
ag53
at(Nttba(lp75
g10
(g22
(I0
tS'b'
tRp76
(I1
(I6
I6
tg14
I00
(lp77
F1
aF0
aF0
aF0
aF0
aF0
aF0
aF1
aF0
aF0
aF0
aF0.125
aF0
aF0
aF1
aF0
aF0
aF0
aF0
aF0
aF0
aF1
aF0
aF0
aF0
aF0
aF0
aF0
aF1
aF0
aF0
aF0.125
aF0
aF0
aF0
aF1
atba(lp78
g10
(g11
(I0
tS'b'
tRp79
((I1
(I6
tg14
I00
(lp80
g68
ag69
ag70
ag71
ag72
ag53
at(NttbatbbsS'NTD11'
p81
g3
(g4
g5
NtRp82
g3
(g7
g5
NtRp83
((lp84
g10
(g11
(I0
tS'b'
tRp85
((I1
(I6
tg14
I00
(lp86
g68
ag69
ag70
ag71
ag72
ag53
at(Nttbag10
(g11
(I0
tS'b'
tRp87
((I1
(I6
tg14
I00
(lp88
g68
ag69
ag70
ag71
ag72
ag53
at(Nttba(lp89
g10
(g22
(I0
tS'b'
tRp90
(I1
(I6
I6
tg14
I00
(lp91
F1
aF0
aF0
aF0
aF0
aF0
aF0
aF1
aF0
aF0
aF0
aF0.125
aF0
aF0
aF1
aF0
aF0
aF0
aF0
aF0
aF0
aF1
aF0
aF0
aF0
aF0
aF0
aF0
aF1
aF0
aF0
aF0.125
aF0
aF0
aF0
aF1
atba(lp92
g10
(g11
(I0
tS'b'
tRp93
((I1
(I6
tg14
I00
(lp94
g68
ag69
ag70
ag71
ag72
ag53
at(NttbatbbsS'DDPA'
p95
g3
(g4
g5
NtRp96
g3
(g7
g5
NtRp97
((lp98
g10
(g11
(I0
tS'b'
tRp99
((I1
(I8
tg14
I00
(lp100
S'AZI'
p101
aS'CSW'
p102
aS'GOL'
p103
aS'CL'
p104
aS'NO3'
p105
aS'CD'
p106
aS'E4P'
p107
aS'PEP'
p108
at(Nttbag10
(g11
(I0
tS'b'
tRp109
((I1
(I8
tg14
I00
(lp110
g101
ag102
ag103
ag104
ag105
ag106
ag107
ag108
at(Nttba(lp111
g10
(g22
(I0
tS'b'
tRp112
(I1
(I8
I8
tg14
I00
(lp113
F1
aF0
aF0
aF0
aF0
aF0
aF0
aF0
aF0
aF1
aF0.13513500000000001
aF0
aF0
aF0
aF0.15384600000000001
aF0.098360699999999995
aF0
aF0.13513500000000001
aF1
aF0
aF0
aF0
aF0.17499999999999999
aF0.114286
aF0
aF0
aF0
aF1
aF0
aF0
aF0
aF0
aF0
aF0
aF0
aF0
aF1
aF0
aF0
aF0
aF0
aF0
aF0
aF0
aF0
aF1
aF0
aF0
aF0
aF0.15384600000000001
aF0.17499999999999999
aF0
aF0
aF0
aF1
aF0.41176499999999999
aF0
aF0.098360699999999995
aF0.114286
aF0
aF0
aF0
aF0.41176499999999999
aF1
atba(lp114
g10
(g11
(I0
tS'b'
tRp115
((I1
(I8
tg14
I00
(lp116
g101
ag102
ag103
ag104
ag105
ag106
ag107
ag108
at(NttbatbbsS'PNTK'
p117
g3
(g4
g5
NtRp118
g3
(g7
g5
NtRp119
((lp120
g10
(g11
(I0
tS'b'
tRp121
((I1
(I5
tg14
I00
(lp122
g52
aS'PAU'
p123
ag72
aS'PAZ'
p124
aS'PO4'
p125
at(Nttbag10
(g11
(I0
tS'b'
tRp126
((I1
(I5
tg14
I00
(lp127
g52
ag123
ag72
ag124
ag125
at(Nttba(lp128
g10
(g22
(I0
tS'b'
tRp129
(I1
(I5
I5
tg14
I00
(lp130
F1
aF0.12790699999999999
aF0
aF0.23563200000000001
aF0.033556999999999997
aF0.12790699999999999
aF1
aF0
aF0.68181800000000004
aF0
aF0
aF0
aF1
aF0
aF0
aF0.23563200000000001
aF0.68181800000000004
aF0
aF1
aF0.075757599999999994
aF0.033556999999999997
aF0
aF0
aF0.075757599999999994
aF1
atba(lp131
g10
(g11
(I0
tS'b'
tRp132
((I1
(I5
tg14
I00
(lp133
g52
ag123
ag72
ag124
ag125
at(NttbatbbsS'LEUabc'
p134
g3
(g4
g5
NtRp135
g3
(g7
g5
NtRp136
((lp137
g10
(g11
(I0
tS'b'
tRp138
((I1
(I3
tg14
I00
(lp139
S'ATP'
p140
aS'EDO'
p141
ag53
at(Nttbag10
(g11
(I0
tS'b'
tRp142
((I1
(I3
tg14
I00
(lp143
g140
ag141
ag53
at(Nttba(lp144
g10
(g22
(I0
tS'b'
tRp145
(I1
(I3
I3
tg14
I00
(lp146
F1
aF0.025641000000000001
aF0.0062111800000000002
aF0.025641000000000001
aF1
aF0
aF0.0062111800000000002
aF0
aF1
atba(lp147
g10
(g11
(I0
tS'b'
tRp148
((I1
(I3
tg14
I00
(lp149
g140
ag141
ag53
at(NttbatbbsS'ILEabc'
p150
g3
(g4
g5
NtRp151
g3
(g7
g5
NtRp152
((lp153
g10
(g11
(I0
tS'b'
tRp154
((I1
(I3
tg14
I00
(lp155
g140
ag141
ag53
at(Nttbag10
(g11
(I0
tS'b'
tRp156
((I1
(I3
tg14
I00
(lp157
g140
ag141
ag53
at(Nttba(lp158
g10
(g22
(I0
tS'b'
tRp159
(I1
(I3
I3
tg14
I00
(lp160
F1
aF0.025641000000000001
aF0.0062111800000000002
aF0.025641000000000001
aF1
aF0
aF0.0062111800000000002
aF0
aF1
atba(lp161
g10
(g11
(I0
tS'b'
tRp162
((I1
(I3
tg14
I00
(lp163
g140
ag141
ag53
at(NttbatbbsS'ACOTA'
p164
g3
(g4
g5
NtRp165
g3
(g7
g5
NtRp166
((lp167
g10
(g11
(I0
tS'b'
tRp168
((I1
(I3
tg14
I00
(lp169
g141
aS'PLP'
p170
ag103
at(Nttbag10
(g11
(I0
tS'b'
tRp171
((I1
(I3
tg14
I00
(lp172
g141
ag170
ag103
at(Nttba(lp173
g10
(g22
(I0
tS'b'
tRp174
(I1
(I3
I3
tg14
I00
(lp175
F1
aF0.03125
aF0.57142899999999996
aF0.03125
aF1
aF0.030303
aF0.57142899999999996
aF0.030303
aF1
atba(lp176
g10
(g11
(I0
tS'b'
tRp177
((I1
(I3
tg14
I00
(lp178
g141
ag170
ag103
at(NttbatbbsS'DRPAr'
p179
g3
(g4
g5
NtRp180
g3
(g7
g5
NtRp181
((lp182
g10
(g11
(I0
tS'b'
tRp183
((I1
(I4
tg14
I00
(lp184
g34
ag103
aS'CIT'
p185
aS'PGO'
p186
at(Nttbag10
(g11
(I0
tS'b'
tRp187
((I1
(I4
tg14
I00
(lp188
g34
ag103
ag185
ag186
at(Nttba(lp189
g10
(g22
(I0
tS'b'
tRp190
(I1
(I4
I4
tg14
I00
(lp191
F1
aF0.29999999999999999
aF0.23999999999999999
aF0.33333299999999999
aF0.29999999999999999
aF1
aF0.28000000000000003
aF0.85714299999999999
aF0.23999999999999999
aF0.28000000000000003
aF1
aF0.23999999999999999
aF0.33333299999999999
aF0.85714299999999999
aF0.23999999999999999
aF1
atba(lp192
g10
(g11
(I0
tS'b'
tRp193
((I1
(I4
tg14
I00
(lp194
g34
ag103
ag185
ag186
at(NttbatbbsS'THRabc'
p195
g3
(g4
g5
NtRp196
g3
(g7
g5
NtRp197
((lp198
g10
(g11
(I0
tS'b'
tRp199
((I1
(I3
tg14
I00
(lp200
g140
ag141
ag53
at(Nttbag10
(g11
(I0
tS'b'
tRp201
((I1
(I3
tg14
I00
(lp202
g140
ag141
ag53
at(Nttba(lp203
g10
(g22
(I0
tS'b'
tRp204
(I1
(I3
I3
tg14
I00
(lp205
F1
aF0.025641000000000001
aF0.0062111800000000002
aF0.025641000000000001
aF1
aF0
aF0.0062111800000000002
aF0
aF1
atba(lp206
g10
(g11
(I0
tS'b'
tRp207
((I1
(I3
tg14
I00
(lp208
g140
ag141
ag53
at(NttbatbbsS'GLCMAN6'
p209
g3
(g4
g5
NtRp210
g3
(g7
g5
NtRp211
((lp212
g10
(g11
(I0
tS'b'
tRp213
((I1
(I8
tg14
I00
(lp214
S'BGC'
p215
aS'CBK'
p216
aS'GLC'
p217
aS'CBI'
p218
aS'BMA'
p219
aS'MAN'
p220
ag106
aS'NI'
p221
at(Nttbag10
(g11
(I0
tS'b'
tRp222
((I1
(I8
tg14
I00
(lp223
g215
ag216
ag217
ag218
ag219
ag220
ag106
ag221
at(Nttba(lp224
g10
(g22
(I0
tS'b'
tRp225
(I1
(I8
I8
tg14
I00
(lp226
F1
aF0.78723399999999999
aF1
aF0.78723399999999999
aF1
aF1
aF0
aF0
aF0.78723399999999999
aF1
aF0.78723399999999999
aF1
aF0.78723399999999999
aF0.78723399999999999
aF0
aF0
aF1
aF0.78723399999999999
aF1
aF0.78723399999999999
aF1
aF1
aF0
aF0
aF0.78723399999999999
aF1
aF0.78723399999999999
aF1
aF0.78723399999999999
aF0.78723399999999999
aF0
aF0
aF1
aF0.78723399999999999
aF1
aF0.78723399999999999
aF1
aF1
aF0
aF0
aF1
aF0.78723399999999999
aF1
aF0.78723399999999999
aF1
aF1
aF0
aF0
aF0
aF0
aF0
aF0
aF0
aF0
aF1
aF0
aF0
aF0
aF0
aF0
aF0
aF0
aF0
aF1
atba(lp227
g10
(g11
(I0
tS'b'
tRp228
((I1
(I8
tg14
I00
(lp229
g215
ag216
ag217
ag218
ag219
ag220
ag106
ag221
at(NttbatbbsS'GLCMAN4'
p230
g3
(g4
g5
NtRp231
g3
(g7
g5
NtRp232
((lp233
g10
(g11
(I0
tS'b'
tRp234
((I1
(I8
tg14
I00
(lp235
g215
ag216
ag217
ag218
ag219
ag220
ag106
ag221
at(Nttbag10
(g11
(I0
tS'b'
tRp236
((I1
(I8
tg14
I00
(lp237
g215
ag216
ag217
ag218
ag219
ag220
ag106
ag221
at(Nttba(lp238
g10
(g22
(I0
tS'b'
tRp239
(I1
(I8
I8
tg14
I00
(lp240
F1
aF0.78723399999999999
aF1
aF0.78723399999999999
aF1
aF1
aF0
aF0
aF0.78723399999999999
aF1
aF0.78723399999999999
aF1
aF0.78723399999999999
aF0.78723399999999999
aF0
aF0
aF1
aF0.78723399999999999
aF1
aF0.78723399999999999
aF1
aF1
aF0
aF0
aF0.78723399999999999
aF1
aF0.78723399999999999
aF1
aF0.78723399999999999
aF0.78723399999999999
aF0
aF0
aF1
aF0.78723399999999999
aF1
aF0.78723399999999999
aF1
aF1
aF0
aF0
aF1
aF0.78723399999999999
aF1
aF0.78723399999999999
aF1
aF1
aF0
aF0
aF0
aF0
aF0
aF0
aF0
aF0
aF1
aF0
aF0
aF0
aF0
aF0
aF0
aF0
aF0
aF1
atba(lp241
g10
(g11
(I0
tS'b'
tRp242
((I1
(I8
tg14
I00
(lp243
g215
ag216
ag217
ag218
ag219
ag220
ag106
ag221
at(NttbatbbsS'BGLA1'
p244
g3
(g4
g5
NtRp245
g3
(g7
g5
NtRp246
((lp247
g10
(g11
(I0
tS'b'
tRp248
((I1
(I4
tg14
I00
(lp249
S'G6P'
p250
aS'MN'
p251
aS'NAD'
p252
ag53
at(Nttbag10
(g11
(I0
tS'b'
tRp253
((I1
(I4
tg14
I00
(lp254
g250
ag251
ag252
ag53
at(Nttba(lp255
g10
(g22
(I0
tS'b'
tRp256
(I1
(I4
I4
tg14
I00
(lp257
F1
aF0
aF0.30890099999999998
aF0
aF0
aF1
aF0
aF0
aF0.30890099999999998
aF0
aF1
aF0.0053191499999999999
aF0
aF0
aF0.0053191499999999999
aF1
atba(lp258
g10
(g11
(I0
tS'b'
tRp259
((I1
(I4
tg14
I00
(lp260
g250
ag251
ag252
ag53
at(NttbatbbsS'IMPC'
p261
g3
(g4
g5
NtRp262
g3
(g7
g5
NtRp263
((lp264
g10
(g11
(I0
tS'b'
tRp265
((I1
(I2
tg14
I00
(lp266
S'K'
aS'PG4'
p267
at(Nttbag10
(g11
(I0
tS'b'
tRp268
((I1
(I2
tg14
I00
(lp269
S'K'
ag267
at(Nttba(lp270
g10
(g22
(I0
tS'b'
tRp271
(I1
(I2
I2
tg14
I00
(lp272
F1
aF0
aF0
aF1
atba(lp273
g10
(g11
(I0
tS'b'
tRp274
((I1
(I2
tg14
I00
(lp275
S'K'
ag267
at(NttbatbbsS'3SALATAi'
p276
g3
(g4
g5
NtRp277
g3
(g7
g5
NtRp278
((lp279
g10
(g11
(I0
tS'b'
tRp280
((I1
(I3
tg14
I00
(lp281
S'LLP'
p282
ag170
ag53
at(Nttbag10
(g11
(I0
tS'b'
tRp283
((I1
(I3
tg14
I00
(lp284
g282
ag170
ag53
at(Nttba(lp285
g10
(g22
(I0
tS'b'
tRp286
(I1
(I3
I3
tg14
I00
(lp287
F1
aF0.635714
aF0.0071942400000000002
aF0.635714
aF1
aF0.01
aF0.0071942400000000002
aF0.01
aF1
atba(lp288
g10
(g11
(I0
tS'b'
tRp289
((I1
(I3
tg14
I00
(lp290
g282
ag170
ag53
at(NttbatbbsS'GLYCD_r'
p291
g3
(g4
g5
NtRp292
g3
(g7
g5
NtRp293
((lp294
g10
(g11
(I0
tS'b'
tRp295
((I1
(I3
tg14
I00
(lp296
g104
aS'TRS'
p297
ag37
at(Nttbag10
(g11
(I0
tS'b'
tRp298
((I1
(I3
tg14
I00
(lp299
g104
ag297
ag37
at(Nttba(lp300
g10
(g22
(I0
tS'b'
tRp301
(I1
(I3
I3
tg14
I00
(lp302
F1
aF0
aF0
aF0
aF1
aF0
aF0
aF0
aF1
atba(lp303
g10
(g11
(I0
tS'b'
tRp304
((I1
(I3
tg14
I00
(lp305
g104
ag297
ag37
at(NttbatbbsS'DHDPRx_r'
p306
g3
(g4
g5
NtRp307
g3
(g7
g5
NtRp308
((lp309
g10
(g11
(I0
tS'b'
tRp310
((I1
(I4
tg14
I00
(lp311
g34
ag141
ag252
ag267
at(Nttbag10
(g11
(I0
tS'b'
tRp312
((I1
(I4
tg14
I00
(lp313
g34
ag141
ag252
ag267
at(Nttba(lp314
g10
(g22
(I0
tS'b'
tRp315
(I1
(I4
I4
tg14
I00
(lp316
F1
aF0.42857099999999998
aF0.032786900000000001
aF0.20000000000000001
aF0.42857099999999998
aF1
aF0.0218579
aF0.33333299999999999
aF0.032786900000000001
aF0.0218579
aF1
aF0.054054100000000001
aF0.20000000000000001
aF0.33333299999999999
aF0.054054100000000001
aF1
atba(lp317
g10
(g11
(I0
tS'b'
tRp318
((I1
(I4
tg14
I00
(lp319
g34
ag141
ag252
ag267
at(NttbatbbsS'ATPS4'
p320
g3
(g4
g5
NtRp321
g3
(g7
g5
NtRp322
((lp323
g10
(g11
(I0
tS'b'
tRp324
((I1
(I4
tg14
I00
(lp325
g140
ag104
ag72
ag267
at(Nttbag10
(g11
(I0
tS'b'
tRp326
((I1
(I4
tg14
I00
(lp327
g140
ag104
ag72
ag267
at(Nttba(lp328
g10
(g22
(I0
tS'b'
tRp329
(I1
(I4
I4
tg14
I00
(lp330
F1
aF0
aF0
aF0.063291100000000003
aF0
aF1
aF0
aF0
aF0
aF0
aF1
aF0
aF0.063291100000000003
aF0
aF0
aF1
atba(lp331
g10
(g11
(I0
tS'b'
tRp332
((I1
(I4
tg14
I00
(lp333
g140
ag104
ag72
ag267
at(NttbatbbsS'RBFK'
p334
g3
(g4
g5
NtRp335
g3
(g7
g5
NtRp336
((lp337
g10
(g11
(I0
tS'b'
tRp338
((I1
(I7
tg14
I00
(lp339
g52
aS'AMP'
p340
aS'FMN'
p341
ag185
aS'LUM'
p342
ag72
aS'RBF'
p343
at(Nttbag10
(g11
(I0
tS'b'
tRp344
((I1
(I7
tg14
I00
(lp345
g52
ag340
ag341
ag185
ag342
ag72
ag343
at(Nttba(lp346
g10
(g22
(I0
tS'b'
tRp347
(I1
(I7
I7
tg14
I00
(lp348
F1
aF0.91946300000000003
aF0.46969699999999998
aF0.094339599999999996
aF0.20103099999999999
aF0
aF0.35353499999999999
aF0.91946300000000003
aF1
aF0.491979
aF0.10204100000000001
aF0.20765
aF0
aF0.36898399999999998
aF0.46969699999999998
aF0.491979
aF1
aF0.091503299999999996
aF0.59154899999999999
aF0
aF0.838028
aF0.094339599999999996
aF0.10204100000000001
aF0.091503299999999996
aF1
aF0.048076899999999999
aF0
aF0.099236599999999994
aF0.20103099999999999
aF0.20765
aF0.59154899999999999
aF0.048076899999999999
aF1
aF0
aF0.70588200000000001
aF0
aF0
aF0
aF0
aF0
aF1
aF0
aF0.35353499999999999
aF0.36898399999999998
aF0.838028
aF0.099236599999999994
aF0.70588200000000001
aF0
aF1
atba(lp349
g10
(g11
(I0
tS'b'
tRp350
((I1
(I7
tg14
I00
(lp351
g52
ag340
ag341
ag185
ag342
ag72
ag343
at(NttbatbbsS'MALTTTRabc'
p352
g3
(g4
g5
NtRp353
g3
(g7
g5
NtRp354
((lp355
g10
(g11
(I0
tS'b'
tRp356
((I1
(I1
tg14
I00
(lp357
S'MLR'
p358
at(Nttbag10
(g11
(I0
tS'b'
tRp359
((I1
(I1
tg14
I00
(lp360
g358
at(Nttba(lp361
g10
(g22
(I0
tS'b'
tRp362
(I1
(I1
I1
tg14
I00
(lp363
F1
atba(lp364
g10
(g11
(I0
tS'b'
tRp365
((I1
(I1
tg14
I00
(lp366
g358
at(NttbatbbsS'RNTR4'
p367
g3
(g4
g5
NtRp368
g3
(g7
g5
NtRp369
((lp370
g10
(g11
(I0
tS'b'
tRp371
((I1
(I4
tg14
I00
(lp372
g34
ag185
ag103
ag37
at(Nttbag10
(g11
(I0
tS'b'
tRp373
((I1
(I4
tg14
I00
(lp374
g34
ag185
ag103
ag37
at(Nttba(lp375
g10
(g22
(I0
tS'b'
tRp376
(I1
(I4
I4
tg14
I00
(lp377
F1
aF0.23999999999999999
aF0.29999999999999999
aF0
aF0.23999999999999999
aF1
aF0.28000000000000003
aF0
aF0.29999999999999999
aF0.28000000000000003
aF1
aF0
aF0
aF0
aF0
aF1
atba(lp378
g10
(g11
(I0
tS'b'
tRp379
((I1
(I4
tg14
I00
(lp380
g34
ag185
ag103
ag37
at(NttbatbbsS'RNTR3'
p381
g3
(g4
g5
NtRp382
g3
(g7
g5
NtRp383
((lp384
g10
(g11
(I0
tS'b'
tRp385
((I1
(I4
tg14
I00
(lp386
g34
ag185
ag103
ag37
at(Nttbag10
(g11
(I0
tS'b'
tRp387
((I1
(I4
tg14
I00
(lp388
g34
ag185
ag103
ag37
at(Nttba(lp389
g10
(g22
(I0
tS'b'
tRp390
(I1
(I4
I4
tg14
I00
(lp391
F1
aF0.23999999999999999
aF0.29999999999999999
aF0
aF0.23999999999999999
aF1
aF0.28000000000000003
aF0
aF0.29999999999999999
aF0.28000000000000003
aF1
aF0
aF0
aF0
aF0
aF1
atba(lp392
g10
(g11
(I0
tS'b'
tRp393
((I1
(I4
tg14
I00
(lp394
g34
ag185
ag103
ag37
at(NttbatbbsS'RNTR2'
p395
g3
(g4
g5
NtRp396
g3
(g7
g5
NtRp397
((lp398
g10
(g11
(I0
tS'b'
tRp399
((I1
(I4
tg14
I00
(lp400
g34
ag185
ag103
ag37
at(Nttbag10
(g11
(I0
tS'b'
tRp401
((I1
(I4
tg14
I00
(lp402
g34
ag185
ag103
ag37
at(Nttba(lp403
g10
(g22
(I0
tS'b'
tRp404
(I1
(I4
I4
tg14
I00
(lp405
F1
aF0.23999999999999999
aF0.29999999999999999
aF0
aF0.23999999999999999
aF1
aF0.28000000000000003
aF0
aF0.29999999999999999
aF0.28000000000000003
aF1
aF0
aF0
aF0
aF0
aF1
atba(lp406
g10
(g11
(I0
tS'b'
tRp407
((I1
(I4
tg14
I00
(lp408
g34
ag185
ag103
ag37
at(NttbatbbsS'RNTR1'
p409
g3
(g4
g5
NtRp410
g3
(g7
g5
NtRp411
((lp412
g10
(g11
(I0
tS'b'
tRp413
((I1
(I4
tg14
I00
(lp414
g34
ag185
ag103
ag37
at(Nttbag10
(g11
(I0
tS'b'
tRp415
((I1
(I4
tg14
I00
(lp416
g34
ag185
ag103
ag37
at(Nttba(lp417
g10
(g22
(I0
tS'b'
tRp418
(I1
(I4
I4
tg14
I00
(lp419
F1
aF0.23999999999999999
aF0.29999999999999999
aF0
aF0.23999999999999999
aF1
aF0.28000000000000003
aF0
aF0.29999999999999999
aF0.28000000000000003
aF1
aF0
aF0
aF0
aF0
aF1
atba(lp420
g10
(g11
(I0
tS'b'
tRp421
((I1
(I4
tg14
I00
(lp422
g34
ag185
ag103
ag37
at(NttbatbbsS'QULNS'
p423
g3
(g4
g5
NtRp424
g3
(g7
g5
NtRp425
((lp426
g10
(g11
(I0
tS'b'
tRp427
((I1
(I3
tg14
I00
(lp428
g35
aS'SF4'
p429
ag37
at(Nttbag10
(g11
(I0
tS'b'
tRp430
((I1
(I3
tg14
I00
(lp431
g35
ag429
ag37
at(Nttba(lp432
g10
(g22
(I0
tS'b'
tRp433
(I1
(I3
I3
tg14
I00
(lp434
F1
aF0
aF0
aF0
aF1
aF0
aF0
aF0
aF1
atba(lp435
g10
(g11
(I0
tS'b'
tRp436
((I1
(I3
tg14
I00
(lp437
g35
ag429
ag37
at(NttbatbbsS'OCTDPS'
p438
g3
(g4
g5
NtRp439
g3
(g7
g5
NtRp440
((lp441
g10
(g11
(I0
tS'b'
tRp442
((I1
(I1
tg14
I00
(lp443
g53
at(Nttbag10
(g11
(I0
tS'b'
tRp444
((I1
(I1
tg14
I00
(lp445
g53
at(Nttba(lp446
g10
(g22
(I0
tS'b'
tRp447
(I1
(I1
I1
tg14
I00
(lp448
F1
atba(lp449
g10
(g11
(I0
tS'b'
tRp450
((I1
(I1
tg14
I00
(lp451
g53
at(NttbatbbsS'MTHPTGHM'
p452
g3
(g4
g5
NtRp453
g3
(g7
g5
NtRp454
((lp455
g10
(g11
(I0
tS'b'
tRp456
((I1
(I6
tg14
I00
(lp457
S'C2F'
p458
aS'MRY'
p459
ag53
ag37
ag141
aS'HCS'
p460
at(Nttbag10
(g11
(I0
tS'b'
tRp461
((I1
(I6
tg14
I00
(lp462
g458
ag459
ag53
ag37
ag141
ag460
at(Nttba(lp463
g10
(g22
(I0
tS'b'
tRp464
(I1
(I6
I6
tg14
I00
(lp465
F1
aF0.041666700000000001
aF0.011834300000000001
aF0
aF0.018072299999999999
aF0.098265900000000003
aF0.041666700000000001
aF1
aF0
aF0
aF0.40000000000000002
aF0.25
aF0.011834300000000001
aF0
aF1
aF0
aF0
aF0.033333300000000003
aF0
aF0
aF0
aF1
aF0
aF0
aF0.018072299999999999
aF0.40000000000000002
aF0
aF0
aF1
aF0.115385
aF0.098265900000000003
aF0.25
aF0.033333300000000003
aF0
aF0.115385
aF1
atba(lp466
g10
(g11
(I0
tS'b'
tRp467
((I1
(I6
tg14
I00
(lp468
g458
ag459
ag53
ag37
ag141
ag460
at(NttbatbbsS'TPI'
p469
g3
(g4
g5
NtRp470
g3
(g7
g5
NtRp471
((lp472
g10
(g11
(I0
tS'b'
tRp473
((I1
(I4
tg14
I00
(lp474
S'3PG'
p475
aS'ANP'
p476
ag72
ag53
at(Nttbag10
(g11
(I0
tS'b'
tRp477
((I1
(I4
tg14
I00
(lp478
g475
ag476
ag72
ag53
at(Nttba(lp479
g10
(g22
(I0
tS'b'
tRp480
(I1
(I4
I4
tg14
I00
(lp481
F1
aF0.157303
aF0
aF0
aF0.157303
aF1
aF0
aF0.0056818199999999998
aF0
aF0
aF1
aF0
aF0
aF0.0056818199999999998
aF0
aF1
atba(lp482
g10
(g11
(I0
tS'b'
tRp483
((I1
(I4
tg14
I00
(lp484
g475
ag476
ag72
ag53
at(NttbatbbsS'FUCASE'
p485
g3
(g4
g5
NtRp486
g3
(g7
g5
NtRp487
((lp488
g10
(g11
(I0
tS'b'
tRp489
((I1
(I14
tg14
I00
(lp490
S'FUC'
p491
aS'FUY'
p492
aS'FUF'
p493
aS'KCX'
p494
aS'FUL'
p495
aS'ZWZ'
p496
aS'ZX5'
p497
aS'ZX6'
p498
aS'ZX7'
p499
aS'ZX8'
p500
aS'ZX9'
p501
aS'ZXA'
p502
aS'ZXB'
p503
aS'ZXD'
p504
at(Nttbag10
(g11
(I0
tS'b'
tRp505
((I1
(I14
tg14
I00
(lp506
g491
ag492
ag493
ag494
ag495
ag496
ag497
ag498
ag499
ag500
ag501
ag502
ag503
ag504
at(Nttba(lp507
g10
(g22
(I0
tS'b'
tRp508
(I1
(I14
I14
tg14
I00
(lp509
F1
aF0.381579
aF0.70588200000000001
aF0.16176499999999999
aF1
aF0.17647099999999999
aF0.110294
aF0.109489
aF0.100719
aF0.097222199999999995
aF0.122807
aF0.148148
aF0.170455
aF0.206349
aF0.381579
aF1
aF0.31111100000000003
aF0.208791
aF0.381579
aF0.32142900000000002
aF0.18954199999999999
aF0.18831200000000001
aF0.18709700000000001
aF0.18124999999999999
aF0.223077
aF0.27835100000000002
aF0.26415100000000002
aF0.320988
aF0.70588200000000001
aF0.31111100000000003
aF1
aF0.19480500000000001
aF0.70588200000000001
aF0.19230800000000001
aF0.15493000000000001
aF0.14583299999999999
aF0.12925200000000001
aF0.125
aF0.17499999999999999
aF0.17777799999999999
aF0.221053
aF0.21917800000000001
aF0.16176499999999999
aF0.208791
aF0.19480500000000001
aF1
aF0.16176499999999999
aF0.328125
aF0.248
aF0.23622000000000001
aF0.234375
aF0.26356600000000002
aF0.33000000000000002
aF0.42029
aF0.25581399999999999
aF0.37288100000000002
aF1
aF0.381579
aF0.70588200000000001
aF0.16176499999999999
aF1
aF0.17647099999999999
aF0.110294
aF0.109489
aF0.100719
aF0.097222199999999995
aF0.122807
aF0.148148
aF0.170455
aF0.206349
aF0.17647099999999999
aF0.32142900000000002
aF0.19230800000000001
aF0.328125
aF0.17647099999999999
aF1
aF0.377193
aF0.373913
aF0.37069000000000002
aF0.35537200000000002
aF0.47252699999999997
aF0.76785700000000001
aF0.51388900000000004
aF0.82222200000000001
aF0.110294
aF0.18954199999999999
aF0.15493000000000001
aF0.248
aF0.110294
aF0.377193
aF1
aF0.78906200000000004
aF0.58620700000000003
aF0.46875
aF0.61417299999999997
aF0.491228
aF0.46341500000000002
aF0.33043499999999998
aF0.109489
aF0.18831200000000001
aF0.14583299999999999
aF0.23622000000000001
aF0.109489
aF0.373913
aF0.78906200000000004
aF1
aF0.59310300000000005
aF0.45678999999999997
aF0.64800000000000002
aF0.48695699999999997
aF0.47154499999999999
aF0.32758599999999999
aF0.100719
aF0.18709700000000001
aF0.12925200000000001
aF0.234375
aF0.100719
aF0.37069000000000002
aF0.58620700000000003
aF0.59310300000000005
aF1
aF0.53896100000000002
aF0.489209
aF0.48275899999999999
aF0.368421
aF0.31355899999999998
aF0.097222199999999995
aF0.18124999999999999
aF0.125
aF0.26356600000000002
aF0.097222199999999995
aF0.35537200000000002
aF0.46875
aF0.45678999999999997
aF0.53896100000000002
aF1
aF0.51428600000000002
aF0.46281
aF0.34532400000000002
aF0.300813
aF0.122807
aF0.223077
aF0.17499999999999999
aF0.33000000000000002
aF0.122807
aF0.47252699999999997
aF0.61417299999999997
aF0.64800000000000002
aF0.489209
aF0.51428600000000002
aF1
aF0.61538499999999996
aF0.68817200000000001
aF0.41304299999999999
aF0.148148
aF0.27835100000000002
aF0.17777799999999999
aF0.42029
aF0.148148
aF0.76785700000000001
aF0.491228
aF0.48695699999999997
aF0.48275899999999999
aF0.46281
aF0.61538499999999996
aF1
aF0.43529400000000001
aF0.63793100000000003
aF0.170455
aF0.26415100000000002
aF0.221053
aF0.25581399999999999
aF0.170455
aF0.51388900000000004
aF0.46341500000000002
aF0.47154499999999999
aF0.368421
aF0.34532400000000002
aF0.68817200000000001
aF0.43529400000000001
aF1
aF0.59090900000000002
aF0.206349
aF0.320988
aF0.21917800000000001
aF0.37288100000000002
aF0.206349
aF0.82222200000000001
aF0.33043499999999998
aF0.32758599999999999
aF0.31355899999999998
aF0.300813
aF0.41304299999999999
aF0.63793100000000003
aF0.59090900000000002
aF1
atba(lp510
g10
(g11
(I0
tS'b'
tRp511
((I1
(I14
tg14
I00
(lp512
g491
ag492
ag493
ag494
ag495
ag496
ag497
ag498
ag499
ag500
ag501
ag502
ag503
ag504
at(NttbatbbsS'ILETA'
p513
g3
(g4
g5
NtRp514
g3
(g7
g5
NtRp515
((lp516
g10
(g11
(I0
tS'b'
tRp517
((I1
(I4
tg14
I00
(lp518
g185
ag104
ag35
ag170
at(Nttbag10
(g11
(I0
tS'b'
tRp519
((I1
(I4
tg14
I00
(lp520
g185
ag104
ag35
ag170
at(Nttba(lp521
g10
(g22
(I0
tS'b'
tRp522
(I1
(I4
I4
tg14
I00
(lp523
F1
aF0
aF0.35999999999999999
aF0.061946899999999999
aF0
aF1
aF0
aF0
aF0.35999999999999999
aF0
aF1
aF0.029703
aF0.061946899999999999
aF0
aF0.029703
aF1
atba(lp524
g10
(g11
(I0
tS'b'
tRp525
((I1
(I4
tg14
I00
(lp526
g185
ag104
ag35
ag170
at(NttbatbbsS'CELLBabc'
p527
g3
(g4
g5
NtRp528
g3
(g7
g5
NtRp529
((lp530
g10
(g11
(I0
tS'b'
tRp531
((I1
(I3
tg14
I00
(lp532
g215
ag68
ag218
at(Nttbag10
(g11
(I0
tS'b'
tRp533
((I1
(I3
tg14
I00
(lp534
g215
ag68
ag218
at(Nttba(lp535
g10
(g22
(I0
tS'b'
tRp536
(I1
(I3
I3
tg14
I00
(lp537
F1
aF0
aF0.78723399999999999
aF0
aF1
aF0
aF0.78723399999999999
aF0
aF1
atba(lp538
g10
(g11
(I0
tS'b'
tRp539
((I1
(I3
tg14
I00
(lp540
g215
ag68
ag218
at(NttbatbbsS'ORNTA'
p541
g3
(g4
g5
NtRp542
g3
(g7
g5
NtRp543
((lp544
g10
(g11
(I0
tS'b'
tRp545
((I1
(I3
tg14
I00
(lp546
g141
ag170
ag103
at(Nttbag10
(g11
(I0
tS'b'
tRp547
((I1
(I3
tg14
I00
(lp548
g141
ag170
ag103
at(Nttba(lp549
g10
(g22
(I0
tS'b'
tRp550
(I1
(I3
I3
tg14
I00
(lp551
F1
aF0.03125
aF0.57142899999999996
aF0.03125
aF1
aF0.030303
aF0.57142899999999996
aF0.030303
aF1
atba(lp552
g10
(g11
(I0
tS'b'
tRp553
((I1
(I3
tg14
I00
(lp554
g141
ag170
ag103
at(NttbatbbsS'ACALDi'
p555
g3
(g4
g5
NtRp556
g3
(g7
g5
NtRp557
((lp558
g10
(g11
(I0
tS'b'
tRp559
((I1
(I5
tg14
I00
(lp560
S'CAC'
p561
aS'NAP'
p562
ag37
aS'FE'
p563
ag297
at(Nttbag10
(g11
(I0
tS'b'
tRp564
((I1
(I5
tg14
I00
(lp565
g561
ag562
ag37
ag563
ag297
at(Nttba(lp566
g10
(g22
(I0
tS'b'
tRp567
(I1
(I5
I5
tg14
I00
(lp568
F1
aF0
aF0
aF0
aF0
aF0
aF1
aF0.0052631600000000002
aF0
aF0.047368399999999998
aF0
aF0.0052631600000000002
aF1
aF0
aF0
aF0
aF0
aF0
aF1
aF0
aF0
aF0.047368399999999998
aF0
aF0
aF1
atba(lp569
g10
(g11
(I0
tS'b'
tRp570
((I1
(I5
tg14
I00
(lp571
g561
ag562
ag37
ag563
ag297
at(NttbatbbsS'C100SN'
p572
g3
(g4
g5
NtRp573
g3
(g7
g5
NtRp574
((lp575
g10
(g11
(I0
tS'b'
tRp576
((I1
(I5
tg14
I00
(lp577
S'2PE'
p578
ag141
ag125
ag53
ag252
at(Nttbag10
(g11
(I0
tS'b'
tRp579
((I1
(I5
tg14
I00
(lp580
g578
ag141
ag125
ag53
ag252
at(Nttba(lp581
g10
(g22
(I0
tS'b'
tRp582
(I1
(I5
I5
tg14
I00
(lp583
F1
aF0.33333299999999999
aF0
aF0
aF0.054054100000000001
aF0.33333299999999999
aF1
aF0
aF0
aF0.0218579
aF0
aF0
aF1
aF0
aF0.0273224
aF0
aF0
aF0
aF1
aF0.0053191499999999999
aF0.054054100000000001
aF0.0218579
aF0.0273224
aF0.0053191499999999999
aF1
atba(lp584
g10
(g11
(I0
tS'b'
tRp585
((I1
(I5
tg14
I00
(lp586
g578
ag141
ag125
ag53
ag252
at(NttbatbbsS'DASYN160'
p587
g3
(g4
g5
NtRp588
g3
(g7
g5
NtRp589
((lp590
g10
(g11
(I0
tS'b'
tRp591
((I1
(I4
tg14
I00
(lp592
S'BNG'
p593
aS'HG'
p594
ag72
aS'K'
at(Nttbag10
(g11
(I0
tS'b'
tRp595
((I1
(I4
tg14
I00
(lp596
g593
ag594
ag72
aS'K'
at(Nttba(lp597
g10
(g22
(I0
tS'b'
tRp598
(I1
(I4
I4
tg14
I00
(lp599
F1
aF0
aF0
aF0
aF0
aF1
aF0
aF0
aF0
aF0
aF1
aF0
aF0
aF0
aF0
aF1
atba(lp600
g10
(g11
(I0
tS'b'
tRp601
((I1
(I4
tg14
I00
(lp602
g593
ag594
ag72
aS'K'
at(NttbatbbsS'DDPGA'
p603
g3
(g4
g5
NtRp604
g3
(g7
g5
NtRp605
((lp606
g10
(g11
(I0
tS'b'
tRp607
((I1
(I2
tg14
I00
(lp608
S'PYR'
p609
ag53
at(Nttbag10
(g11
(I0
tS'b'
tRp610
((I1
(I2
tg14
I00
(lp611
g609
ag53
at(Nttba(lp612
g10
(g22
(I0
tS'b'
tRp613
(I1
(I2
I2
tg14
I00
(lp614
F1
aF0
aF0
aF1
atba(lp615
g10
(g11
(I0
tS'b'
tRp616
((I1
(I2
tg14
I00
(lp617
g609
ag53
at(NttbatbbsS'AGDC_r'
p618
g3
(g4
g5
NtRp619
g3
(g7
g5
NtRp620
((lp621
g10
(g11
(I0
tS'b'
tRp622
((I1
(I1
tg14
I00
(lp623
g563
at(Nttbag10
(g11
(I0
tS'b'
tRp624
((I1
(I1
tg14
I00
(lp625
g563
at(Nttba(lp626
g10
(g22
(I0
tS'b'
tRp627
(I1
(I1
I1
tg14
I00
(lp628
F1
atba(lp629
g10
(g11
(I0
tS'b'
tRp630
((I1
(I1
tg14
I00
(lp631
g563
at(NttbatbbsS'PANTS'
p632
g3
(g4
g5
NtRp633
g3
(g7
g5
NtRp634
((lp635
g10
(g11
(I0
tS'b'
tRp636
((I1
(I2
tg14
I00
(lp637
g34
ag37
at(Nttbag10
(g11
(I0
tS'b'
tRp638
((I1
(I2
tg14
I00
(lp639
g34
ag37
at(Nttba(lp640
g10
(g22
(I0
tS'b'
tRp641
(I1
(I2
I2
tg14
I00
(lp642
F1
aF0
aF0
aF1
atba(lp643
g10
(g11
(I0
tS'b'
tRp644
((I1
(I2
tg14
I00
(lp645
g34
ag37
at(NttbatbbsS'PRFGS'
p646
g3
(g4
g5
NtRp647
g3
(g7
g5
NtRp648
((lp649
g10
(g11
(I0
tS'b'
tRp650
((I1
(I8
tg14
I00
(lp651
S'ACP'
p652
aS'FGR'
p653
ag72
ag125
ag52
aS'CYG'
p654
ag140
ag104
at(Nttbag10
(g11
(I0
tS'b'
tRp655
((I1
(I8
tg14
I00
(lp656
g652
ag653
ag72
ag125
ag52
ag654
ag140
ag104
at(Nttba(lp657
g10
(g22
(I0
tS'b'
tRp658
(I1
(I8
I8
tg14
I00
(lp659
F1
aF0.35406700000000002
aF0
aF0.029585799999999999
aF0.88165700000000002
aF0.080188700000000002
aF0.84659099999999998
aF0
aF0.35406700000000002
aF1
aF0
aF0.043859599999999999
aF0.39153399999999999
aF0.122581
aF0.37755100000000003
aF0
aF0
aF0
aF1
aF0
aF0
aF0
aF0
aF0
aF0.029585799999999999
aF0.043859599999999999
aF0
aF1
aF0.033556999999999997
aF0
aF0.032051299999999998
aF0
aF0.88165700000000002
aF0.39153399999999999
aF0
aF0.033556999999999997
aF1
aF0.082901600000000006
aF0.95512799999999998
aF0
aF0.080188700000000002
aF0.122581
aF0
aF0
aF0.082901600000000006
aF1
aF0.085427100000000006
aF0
aF0.84659099999999998
aF0.37755100000000003
aF0
aF0.032051299999999998
aF0.95512799999999998
aF0.085427100000000006
aF1
aF0
aF0
aF0
aF0
aF0
aF0
aF0
aF0
aF1
atba(lp660
g10
(g11
(I0
tS'b'
tRp661
((I1
(I8
tg14
I00
(lp662
g652
ag653
ag72
ag125
ag52
ag654
ag140
ag104
at(NttbatbbsS'DAPDC'
p663
g3
(g4
g5
NtRp664
g3
(g7
g5
NtRp665
((lp666
g10
(g11
(I0
tS'b'
tRp667
((I1
(I1
tg14
I00
(lp668
g170
at(Nttbag10
(g11
(I0
tS'b'
tRp669
((I1
(I1
tg14
I00
(lp670
g170
at(Nttba(lp671
g10
(g22
(I0
tS'b'
tRp672
(I1
(I1
I1
tg14
I00
(lp673
F1
atba(lp674
g10
(g11
(I0
tS'b'
tRp675
((I1
(I1
tg14
I00
(lp676
g170
at(NttbatbbsS'ATPS10_3'
p677
g3
(g4
g5
NtRp678
g3
(g7
g5
NtRp679
((lp680
g10
(g11
(I0
tS'b'
tRp681
((I1
(I4
tg14
I00
(lp682
g140
ag104
ag72
ag267
at(Nttbag10
(g11
(I0
tS'b'
tRp683
((I1
(I4
tg14
I00
(lp684
g140
ag104
ag72
ag267
at(Nttba(lp685
g10
(g22
(I0
tS'b'
tRp686
(I1
(I4
I4
tg14
I00
(lp687
F1
aF0
aF0
aF0.063291100000000003
aF0
aF1
aF0
aF0
aF0
aF0
aF1
aF0
aF0.063291100000000003
aF0
aF0
aF1
atba(lp688
g10
(g11
(I0
tS'b'
tRp689
((I1
(I4
tg14
I00
(lp690
g140
ag104
ag72
ag267
at(NttbatbbsS'ACLS'
p691
g3
(g4
g5
NtRp692
g3
(g7
g5
NtRp693
((lp694
g10
(g11
(I0
tS'b'
tRp695
((I1
(I1
tg14
I00
(lp696
g72
at(Nttbag10
(g11
(I0
tS'b'
tRp697
((I1
(I1
tg14
I00
(lp698
g72
at(Nttba(lp699
g10
(g22
(I0
tS'b'
tRp700
(I1
(I1
I1
tg14
I00
(lp701
F1
atba(lp702
g10
(g11
(I0
tS'b'
tRp703
((I1
(I1
tg14
I00
(lp704
g72
at(NttbatbbsS'SPMS'
p705
g3
(g4
g5
NtRp706
g3
(g7
g5
NtRp707
((lp708
g10
(g11
(I0
tS'b'
tRp709
((I1
(I1
tg14
I00
(lp710
S'AAT'
p711
at(Nttbag10
(g11
(I0
tS'b'
tRp712
((I1
(I1
tg14
I00
(lp713
g711
at(Nttba(lp714
g10
(g22
(I0
tS'b'
tRp715
(I1
(I1
I1
tg14
I00
(lp716
F1
atba(lp717
g10
(g11
(I0
tS'b'
tRp718
((I1
(I1
tg14
I00
(lp719
g711
at(NttbatbbsS'TREabc'
p720
g3
(g4
g5
NtRp721
g3
(g7
g5
NtRp722
((lp723
g10
(g11
(I0
tS'b'
tRp724
((I1
(I1
tg14
I00
(lp725
g358
at(Nttbag10
(g11
(I0
tS'b'
tRp726
((I1
(I1
tg14
I00
(lp727
g358
at(Nttba(lp728
g10
(g22
(I0
tS'b'
tRp729
(I1
(I1
I1
tg14
I00
(lp730
F1
atba(lp731
g10
(g11
(I0
tS'b'
tRp732
((I1
(I1
tg14
I00
(lp733
g358
at(NttbatbbsS'PRAI'
p734
g3
(g4
g5
NtRp735
g3
(g7
g5
NtRp736
((lp737
g10
(g11
(I0
tS'b'
tRp738
((I1
(I3
tg14
I00
(lp739
S'137'
p740
ag125
ag53
at(Nttbag10
(g11
(I0
tS'b'
tRp741
((I1
(I3
tg14
I00
(lp742
g740
ag125
ag53
at(Nttba(lp743
g10
(g22
(I0
tS'b'
tRp744
(I1
(I3
I3
tg14
I00
(lp745
F1
aF0.050505099999999997
aF0
aF0.050505099999999997
aF1
aF0
aF0
aF0
aF1
atba(lp746
g10
(g11
(I0
tS'b'
tRp747
((I1
(I3
tg14
I00
(lp748
g740
ag125
ag53
at(NttbatbbsS'UAMAGS'
p749
g3
(g4
g5
NtRp750
g3
(g7
g5
NtRp751
((lp752
g10
(g11
(I0
tS'b'
tRp753
((I1
(I5
tg14
I00
(lp754
g104
ag103
aS'NH4'
p755
aS'PO3'
p756
ag125
at(Nttbag10
(g11
(I0
tS'b'
tRp757
((I1
(I5
tg14
I00
(lp758
g104
ag103
ag755
ag756
ag125
at(Nttba(lp759
g10
(g22
(I0
tS'b'
tRp760
(I1
(I5
I5
tg14
I00
(lp761
F1
aF0
aF0
aF0
aF0
aF0
aF1
aF0
aF0
aF0
aF0
aF0
aF0
aF0
aF0
aF0
aF0
aF0
aF1
aF1
aF0
aF0
aF0
aF1
aF1
atba(lp762
g10
(g11
(I0
tS'b'
tRp763
((I1
(I5
tg14
I00
(lp764
g104
ag103
ag755
ag756
ag125
at(NttbatbbsS'FMNAT'
p765
g3
(g4
g5
NtRp766
g3
(g7
g5
NtRp767
((lp768
g10
(g11
(I0
tS'b'
tRp769
((I1
(I7
tg14
I00
(lp770
g52
ag340
ag341
ag185
ag342
ag72
ag343
at(Nttbag10
(g11
(I0
tS'b'
tRp771
((I1
(I7
tg14
I00
(lp772
g52
ag340
ag341
ag185
ag342
ag72
ag343
at(Nttba(lp773
g10
(g22
(I0
tS'b'
tRp774
(I1
(I7
I7
tg14
I00
(lp775
F1
aF0.91946300000000003
aF0.46969699999999998
aF0.094339599999999996
aF0.20103099999999999
aF0
aF0.35353499999999999
aF0.91946300000000003
aF1
aF0.491979
aF0.10204100000000001
aF0.20765
aF0
aF0.36898399999999998
aF0.46969699999999998
aF0.491979
aF1
aF0.091503299999999996
aF0.59154899999999999
aF0
aF0.838028
aF0.094339599999999996
aF0.10204100000000001
aF0.091503299999999996
aF1
aF0.048076899999999999
aF0
aF0.099236599999999994
aF0.20103099999999999
aF0.20765
aF0.59154899999999999
aF0.048076899999999999
aF1
aF0
aF0.70588200000000001
aF0
aF0
aF0
aF0
aF0
aF1
aF0
aF0.35353499999999999
aF0.36898399999999998
aF0.838028
aF0.099236599999999994
aF0.70588200000000001
aF0
aF1
atba(lp776
g10
(g11
(I0
tS'b'
tRp777
((I1
(I7
tg14
I00
(lp778
g52
ag340
ag341
ag185
ag342
ag72
ag343
at(NttbatbbsS'CELASE1'
p779
g3
(g4
g5
NtRp780
g3
(g7
g5
NtRp781
((lp782
g10
(g11
(I0
tS'b'
tRp783
((I1
(I1
tg14
I00
(lp784
S'BR'
p785
at(Nttbag10
(g11
(I0
tS'b'
tRp786
((I1
(I1
tg14
I00
(lp787
g785
at(Nttba(lp788
g10
(g22
(I0
tS'b'
tRp789
(I1
(I1
I1
tg14
I00
(lp790
F1
atba(lp791
g10
(g11
(I0
tS'b'
tRp792
((I1
(I1
tg14
I00
(lp793
g785
at(NttbatbbsS'METS'
p794
g3
(g4
g5
NtRp795
g3
(g7
g5
NtRp796
((lp797
g10
(g11
(I0
tS'b'
tRp798
((I1
(I6
tg14
I00
(lp799
g458
ag106
ag460
aS'K'
aS'YT3'
p800
ag37
at(Nttbag10
(g11
(I0
tS'b'
tRp801
((I1
(I6
tg14
I00
(lp802
g458
ag106
ag460
aS'K'
ag800
ag37
at(Nttba(lp803
g10
(g22
(I0
tS'b'
tRp804
(I1
(I6
I6
tg14
I00
(lp805
F1
aF0
aF0.098265900000000003
aF0
aF0
aF0
aF0
aF1
aF0
aF0
aF0
aF0
aF0.098265900000000003
aF0
aF1
aF0
aF0
aF0
aF0
aF0
aF0
aF1
aF0
aF0
aF0
aF0
aF0
aF0
aF1
aF0
aF0
aF0
aF0
aF0
aF0
aF1
atba(lp806
g10
(g11
(I0
tS'b'
tRp807
((I1
(I6
tg14
I00
(lp808
g458
ag106
ag460
aS'K'
ag800
ag37
at(NttbatbbsS'ATPPRTr'
p809
g3
(g4
g5
NtRp810
g3
(g7
g5
NtRp811
((lp812
g10
(g11
(I0
tS'b'
tRp813
((I1
(I1
tg14
I00
(lp814
g125
at(Nttbag10
(g11
(I0
tS'b'
tRp815
((I1
(I1
tg14
I00
(lp816
g125
at(Nttba(lp817
g10
(g22
(I0
tS'b'
tRp818
(I1
(I1
I1
tg14
I00
(lp819
F1
atba(lp820
g10
(g11
(I0
tS'b'
tRp821
((I1
(I1
tg14
I00
(lp822
g125
at(NttbatbbsS'SUCR'
p823
g3
(g4
g5
NtRp824
g3
(g7
g5
NtRp825
((lp826
g10
(g11
(I0
tS'b'
tRp827
((I1
(I6
tg14
I00
(lp828
g185
aS'GLA'
p829
ag53
aS'SUC'
p830
ag103
ag252
at(Nttbag10
(g11
(I0
tS'b'
tRp831
((I1
(I6
tg14
I00
(lp832
g185
ag829
ag53
ag830
ag103
ag252
at(Nttba(lp833
g10
(g22
(I0
tS'b'
tRp834
(I1
(I6
I6
tg14
I00
(lp835
F1
aF0.26530599999999999
aF0
aF0.213115
aF0.28000000000000003
aF0.089005200000000007
aF0.26530599999999999
aF1
aF0
aF0.75510200000000005
aF0.189189
aF0.15789500000000001
aF0
aF0
aF1
aF0
aF0
aF0.0053191499999999999
aF0.213115
aF0.75510200000000005
aF0
aF1
aF0.14285700000000001
aF0.17766499999999999
aF0.28000000000000003
aF0.189189
aF0
aF0.14285700000000001
aF1
aF0.038251399999999998
aF0.089005200000000007
aF0.15789500000000001
aF0.0053191499999999999
aF0.17766499999999999
aF0.038251399999999998
aF1
atba(lp836
g10
(g11
(I0
tS'b'
tRp837
((I1
(I6
tg14
I00
(lp838
g185
ag829
ag53
ag830
ag103
ag252
at(NttbatbbsS'XYL2e'
p839
g3
(g4
g5
NtRp840
g3
(g7
g5
NtRp841
((lp842
g10
(g11
(I0
tS'b'
tRp843
((I1
(I7
tg14
I00
(lp844
S'ACY'
p845
ag103
ag53
aS'XYP'
p846
aS'XYS'
p847
ag215
ag68
at(Nttbag10
(g11
(I0
tS'b'
tRp848
((I1
(I7
tg14
I00
(lp849
g845
ag103
ag53
ag846
ag847
ag215
ag68
at(Nttba(lp850
g10
(g22
(I0
tS'b'
tRp851
(I1
(I7
I7
tg14
I00
(lp852
F1
aF0.29999999999999999
aF0
aF0.081081100000000003
aF0.081081100000000003
aF0.074999999999999997
aF0
aF0.29999999999999999
aF1
aF0
aF0.20588200000000001
aF0.20588200000000001
aF0.189189
aF0
aF0
aF0
aF1
aF0
aF0
aF0
aF0
aF0.081081100000000003
aF0.20588200000000001
aF0
aF1
aF1
aF0.91891900000000004
aF0
aF0.081081100000000003
aF0.20588200000000001
aF0
aF1
aF1
aF0.91891900000000004
aF0
aF0.074999999999999997
aF0.189189
aF0
aF0.91891900000000004
aF0.91891900000000004
aF1
aF0
aF0
aF0
aF0
aF0
aF0
aF0
aF1
atba(lp853
g10
(g11
(I0
tS'b'
tRp854
((I1
(I7
tg14
I00
(lp855
g845
ag103
ag53
ag846
ag847
ag215
ag68
at(NttbatbbsS'THRA2r'
p856
g3
(g4
g5
NtRp857
g3
(g7
g5
NtRp858
((lp859
g10
(g11
(I0
tS'b'
tRp860
((I1
(I7
tg14
I00
(lp861
g68
ag104
ag282
ag103
ag170
aS'TLP'
p862
aS'PLG'
p863
at(Nttbag10
(g11
(I0
tS'b'
tRp864
((I1
(I7
tg14
I00
(lp865
g68
ag104
ag282
ag103
ag170
ag862
ag863
at(Nttba(lp866
g10
(g22
(I0
tS'b'
tRp867
(I1
(I7
I7
tg14
I00
(lp868
F1
aF0
aF0
aF0
aF0
aF0
aF0
aF0
aF1
aF0
aF0
aF0
aF0
aF0
aF0
aF0
aF1
aF0.036764699999999997
aF0.635714
aF0.859155
aF0.80000000000000004
aF0
aF0
aF0.036764699999999997
aF1
aF0.030303
aF0.045801500000000002
aF0.0245902
aF0
aF0
aF0.635714
aF0.030303
aF1
aF0.65441199999999999
aF0.71774199999999999
aF0
aF0
aF0.859155
aF0.045801500000000002
aF0.65441199999999999
aF1
aF0.90769200000000005
aF0
aF0
aF0.80000000000000004
aF0.0245902
aF0.71774199999999999
aF0.90769200000000005
aF1
atba(lp869
g10
(g11
(I0
tS'b'
tRp870
((I1
(I7
tg14
I00
(lp871
g68
ag104
ag282
ag103
ag170
ag862
ag863
at(NttbatbbsS'GALMAN6'
p872
g3
(g4
g5
NtRp873
g3
(g7
g5
NtRp874
((lp875
g10
(g11
(I0
tS'b'
tRp876
((I1
(I8
tg14
I00
(lp877
g215
ag216
ag217
ag218
ag219
ag220
ag106
ag221
at(Nttbag10
(g11
(I0
tS'b'
tRp878
((I1
(I8
tg14
I00
(lp879
g215
ag216
ag217
ag218
ag219
ag220
ag106
ag221
at(Nttba(lp880
g10
(g22
(I0
tS'b'
tRp881
(I1
(I8
I8
tg14
I00
(lp882
F1
aF0.78723399999999999
aF1
aF0.78723399999999999
aF1
aF1
aF0
aF0
aF0.78723399999999999
aF1
aF0.78723399999999999
aF1
aF0.78723399999999999
aF0.78723399999999999
aF0
aF0
aF1
aF0.78723399999999999
aF1
aF0.78723399999999999
aF1
aF1
aF0
aF0
aF0.78723399999999999
aF1
aF0.78723399999999999
aF1
aF0.78723399999999999
aF0.78723399999999999
aF0
aF0
aF1
aF0.78723399999999999
aF1
aF0.78723399999999999
aF1
aF1
aF0
aF0
aF1
aF0.78723399999999999
aF1
aF0.78723399999999999
aF1
aF1
aF0
aF0
aF0
aF0
aF0
aF0
aF0
aF0
aF1
aF0
aF0
aF0
aF0
aF0
aF0
aF0
aF0
aF1
atba(lp883
g10
(g11
(I0
tS'b'
tRp884
((I1
(I8
tg14
I00
(lp885
g215
ag216
ag217
ag218
ag219
ag220
ag106
ag221
at(NttbatbbsS'GALMAN4'
p886
g3
(g4
g5
NtRp887
g3
(g7
g5
NtRp888
((lp889
g10
(g11
(I0
tS'b'
tRp890
((I1
(I8
tg14
I00
(lp891
g215
ag216
ag217
ag218
ag219
ag220
ag106
ag221
at(Nttbag10
(g11
(I0
tS'b'
tRp892
((I1
(I8
tg14
I00
(lp893
g215
ag216
ag217
ag218
ag219
ag220
ag106
ag221
at(Nttba(lp894
g10
(g22
(I0
tS'b'
tRp895
(I1
(I8
I8
tg14
I00
(lp896
F1
aF0.78723399999999999
aF1
aF0.78723399999999999
aF1
aF1
aF0
aF0
aF0.78723399999999999
aF1
aF0.78723399999999999
aF1
aF0.78723399999999999
aF0.78723399999999999
aF0
aF0
aF1
aF0.78723399999999999
aF1
aF0.78723399999999999
aF1
aF1
aF0
aF0
aF0.78723399999999999
aF1
aF0.78723399999999999
aF1
aF0.78723399999999999
aF0.78723399999999999
aF0
aF0
aF1
aF0.78723399999999999
aF1
aF0.78723399999999999
aF1
aF1
aF0
aF0
aF1
aF0.78723399999999999
aF1
aF0.78723399999999999
aF1
aF1
aF0
aF0
aF0
aF0
aF0
aF0
aF0
aF0
aF1
aF0
aF0
aF0
aF0
aF0
aF0
aF0
aF0
aF1
atba(lp897
g10
(g11
(I0
tS'b'
tRp898
((I1
(I8
tg14
I00
(lp899
g215
ag216
ag217
ag218
ag219
ag220
ag106
ag221
at(NttbatbbsS'KAS_HP'
p900
g3
(g4
g5
NtRp901
g3
(g7
g5
NtRp902
((lp903
g10
(g11
(I0
tS'b'
tRp904
((I1
(I5
tg14
I00
(lp905
g578
ag141
ag125
ag53
ag252
at(Nttbag10
(g11
(I0
tS'b'
tRp906
((I1
(I5
tg14
I00
(lp907
g578
ag141
ag125
ag53
ag252
at(Nttba(lp908
g10
(g22
(I0
tS'b'
tRp909
(I1
(I5
I5
tg14
I00
(lp910
F1
aF0.33333299999999999
aF0
aF0
aF0.054054100000000001
aF0.33333299999999999
aF1
aF0
aF0
aF0.0218579
aF0
aF0
aF1
aF0
aF0.0273224
aF0
aF0
aF0
aF1
aF0.0053191499999999999
aF0.054054100000000001
aF0.0218579
aF0.0273224
aF0.0053191499999999999
aF1
atba(lp911
g10
(g11
(I0
tS'b'
tRp912
((I1
(I5
tg14
I00
(lp913
g578
ag141
ag125
ag53
ag252
at(NttbatbbsS'ACGK'
p914
g3
(g4
g5
NtRp915
g3
(g7
g5
NtRp916
((lp917
g10
(g11
(I0
tS'b'
tRp918
((I1
(I2
tg14
I00
(lp919
S'K'
aS'NLG'
p920
at(Nttbag10
(g11
(I0
tS'b'
tRp921
((I1
(I2
tg14
I00
(lp922
S'K'
ag920
at(Nttba(lp923
g10
(g22
(I0
tS'b'
tRp924
(I1
(I2
I2
tg14
I00
(lp925
F1
aF0
aF0
aF1
atba(lp926
g10
(g11
(I0
tS'b'
tRp927
((I1
(I2
tg14
I00
(lp928
S'K'
ag920
at(NttbatbbsS'CELASE2'
p929
g3
(g4
g5
NtRp930
g3
(g7
g5
NtRp931
((lp932
g10
(g11
(I0
tS'b'
tRp933
((I1
(I1
tg14
I00
(lp934
g785
at(Nttbag10
(g11
(I0
tS'b'
tRp935
((I1
(I1
tg14
I00
(lp936
g785
at(Nttba(lp937
g10
(g22
(I0
tS'b'
tRp938
(I1
(I1
I1
tg14
I00
(lp939
F1
atba(lp940
g10
(g11
(I0
tS'b'
tRp941
((I1
(I1
tg14
I00
(lp942
g785
at(NttbatbbsS'FASC180ACP'
p943
g3
(g4
g5
NtRp944
g3
(g7
g5
NtRp945
((lp946
g10
(g11
(I0
tS'b'
tRp947
((I1
(I5
tg14
I00
(lp948
g578
ag141
ag125
ag53
ag252
at(Nttbag10
(g11
(I0
tS'b'
tRp949
((I1
(I5
tg14
I00
(lp950
g578
ag141
ag125
ag53
ag252
at(Nttba(lp951
g10
(g22
(I0
tS'b'
tRp952
(I1
(I5
I5
tg14
I00
(lp953
F1
aF0.33333299999999999
aF0
aF0
aF0.054054100000000001
aF0.33333299999999999
aF1
aF0
aF0
aF0.0218579
aF0
aF0
aF1
aF0
aF0.0273224
aF0
aF0
aF0
aF1
aF0.0053191499999999999
aF0.054054100000000001
aF0.0218579
aF0.0273224
aF0.0053191499999999999
aF1
atba(lp954
g10
(g11
(I0
tS'b'
tRp955
((I1
(I5
tg14
I00
(lp956
g578
ag141
ag125
ag53
ag252
at(NttbatbbsS'HSTPTr'
p957
g3
(g4
g5
NtRp958
g3
(g7
g5
NtRp959
((lp960
g10
(g11
(I0
tS'b'
tRp961
((I1
(I5
tg14
I00
(lp962
g141
aS'PMP'
p963
aS'HSA'
p964
ag170
ag125
at(Nttbag10
(g11
(I0
tS'b'
tRp965
((I1
(I5
tg14
I00
(lp966
g141
ag963
ag964
ag170
ag125
at(Nttba(lp967
g10
(g22
(I0
tS'b'
tRp968
(I1
(I5
I5
tg14
I00
(lp969
F1
aF0.03125
aF0.0405405
aF0.03125
aF0
aF0.03125
aF1
aF0.22627700000000001
aF0.84465999999999997
aF0.052631600000000001
aF0.0405405
aF0.22627700000000001
aF1
aF0.20863300000000001
aF0.068493200000000004
aF0.03125
aF0.84465999999999997
aF0.20863300000000001
aF1
aF0.052631600000000001
aF0
aF0.052631600000000001
aF0.068493200000000004
aF0.052631600000000001
aF1
atba(lp970
g10
(g11
(I0
tS'b'
tRp971
((I1
(I5
tg14
I00
(lp972
g141
ag963
ag964
ag170
ag125
at(NttbatbbsS'GLS'
p973
g3
(g4
g5
NtRp974
g3
(g7
g5
NtRp975
((lp976
g10
(g11
(I0
tS'b'
tRp977
((I1
(I8
tg14
I00
(lp978
S'16A'
p979
ag68
ag215
ag103
ag104
ag53
aS'LGC'
p980
ag785
at(Nttbag10
(g11
(I0
tS'b'
tRp981
((I1
(I8
tg14
I00
(lp982
g979
ag68
ag215
ag103
ag104
ag53
ag980
ag785
at(Nttba(lp983
g10
(g22
(I0
tS'b'
tRp984
(I1
(I8
I8
tg14
I00
(lp985
F1
aF0
aF0.10204100000000001
aF0.090909100000000007
aF0
aF0
aF0.084745799999999996
aF0
aF0
aF1
aF0
aF0
aF0
aF0
aF0
aF0
aF0.10204100000000001
aF0
aF1
aF0.189189
aF0
aF0
aF0.55555600000000005
aF0
aF0.090909100000000007
aF0
aF0.189189
aF1
aF0
aF0
aF0.14893600000000001
aF0
aF0
aF0
aF0
aF0
aF1
aF0
aF0
aF0
aF0
aF0
aF0
aF0
aF0
aF1
aF0
aF0
aF0.084745799999999996
aF0
aF0.55555600000000005
aF0.14893600000000001
aF0
aF0
aF1
aF0
aF0
aF0
aF0
aF0
aF0
aF0
aF0
aF1
atba(lp986
g10
(g11
(I0
tS'b'
tRp987
((I1
(I8
tg14
I00
(lp988
g979
ag68
ag215
ag103
ag104
ag53
ag980
ag785
at(NttbatbbsS'PPCOAC'
p989
g3
(g4
g5
NtRp990
g3
(g7
g5
NtRp991
((lp992
g10
(g11
(I0
tS'b'
tRp993
((I1
(I2
tg14
I00
(lp994
S'BCT'
p995
ag72
at(Nttbag10
(g11
(I0
tS'b'
tRp996
((I1
(I2
tg14
I00
(lp997
g995
ag72
at(Nttba(lp998
g10
(g22
(I0
tS'b'
tRp999
(I1
(I2
I2
tg14
I00
(lp1000
F1
aF0
aF0
aF1
atba(lp1001
g10
(g11
(I0
tS'b'
tRp1002
((I1
(I2
tg14
I00
(lp1003
g995
ag72
at(NttbatbbsS'NT5C'
p1004
g3
(g4
g5
NtRp1005
g3
(g7
g5
NtRp1006
((lp1007
g10
(g11
(I0
tS'b'
tRp1008
((I1
(I6
tg14
I00
(lp1009
g68
ag69
ag70
ag71
ag72
ag53
at(Nttbag10
(g11
(I0
tS'b'
tRp1010
((I1
(I6
tg14
I00
(lp1011
g68
ag69
ag70
ag71
ag72
ag53
at(Nttba(lp1012
g10
(g22
(I0
tS'b'
tRp1013
(I1
(I6
I6
tg14
I00
(lp1014
F1
aF0
aF0
aF0
aF0
aF0
aF0
aF1
aF0
aF0
aF0
aF0.125
aF0
aF0
aF1
aF0
aF0
aF0
aF0
aF0
aF0
aF1
aF0
aF0
aF0
aF0
aF0
aF0
aF1
aF0
aF0
aF0.125
aF0
aF0
aF0
aF1
atba(lp1015
g10
(g11
(I0
tS'b'
tRp1016
((I1
(I6
tg14
I00
(lp1017
g68
ag69
ag70
ag71
ag72
ag53
at(NttbatbbsS'APRAUR'
p1018
g3
(g4
g5
NtRp1019
g3
(g7
g5
NtRp1020
((lp1021
g10
(g11
(I0
tS'b'
tRp1022
((I1
(I4
tg14
I00
(lp1023
g104
ag103
aS'NDP'
p1024
ag37
at(Nttbag10
(g11
(I0
tS'b'
tRp1025
((I1
(I4
tg14
I00
(lp1026
g104
ag103
ag1024
ag37
at(Nttba(lp1027
g10
(g22
(I0
tS'b'
tRp1028
(I1
(I4
I4
tg14
I00
(lp1029
F1
aF0
aF0
aF0
aF0
aF1
aF0.03125
aF0
aF0
aF0.03125
aF1
aF0.0044642900000000001
aF0
aF0
aF0.0044642900000000001
aF1
atba(lp1030
g10
(g11
(I0
tS'b'
tRp1031
((I1
(I4
tg14
I00
(lp1032
g104
ag103
ag1024
ag37
at(NttbatbbsS'NTD5_a'
p1033
g3
(g4
g5
NtRp1034
g3
(g7
g5
NtRp1035
((lp1036
g10
(g11
(I0
tS'b'
tRp1037
((I1
(I6
tg14
I00
(lp1038
g68
ag69
ag70
ag71
ag72
ag53
at(Nttbag10
(g11
(I0
tS'b'
tRp1039
((I1
(I6
tg14
I00
(lp1040
g68
ag69
ag70
ag71
ag72
ag53
at(Nttba(lp1041
g10
(g22
(I0
tS'b'
tRp1042
(I1
(I6
I6
tg14
I00
(lp1043
F1
aF0
aF0
aF0
aF0
aF0
aF0
aF1
aF0
aF0
aF0
aF0.125
aF0
aF0
aF1
aF0
aF0
aF0
aF0
aF0
aF0
aF1
aF0
aF0
aF0
aF0
aF0
aF0
aF1
aF0
aF0
aF0.125
aF0
aF0
aF0
aF1
atba(lp1044
g10
(g11
(I0
tS'b'
tRp1045
((I1
(I6
tg14
I00
(lp1046
g68
ag69
ag70
ag71
ag72
ag53
at(NttbatbbsS'AMYe'
p1047
g3
(g4
g5
NtRp1048
g3
(g7
g5
NtRp1049
((lp1050
g10
(g11
(I0
tS'b'
tRp1051
((I1
(I1
tg14
I00
(lp1052
g217
at(Nttbag10
(g11
(I0
tS'b'
tRp1053
((I1
(I1
tg14
I00
(lp1054
g217
at(Nttba(lp1055
g10
(g22
(I0
tS'b'
tRp1056
(I1
(I1
I1
tg14
I00
(lp1057
F1
atba(lp1058
g10
(g11
(I0
tS'b'
tRp1059
((I1
(I1
tg14
I00
(lp1060
g217
at(NttbatbbsS'IG3PS'
p1061
g3
(g4
g5
NtRp1062
g3
(g7
g5
NtRp1063
((lp1064
g10
(g11
(I0
tS'b'
tRp1065
((I1
(I8
tg14
I00
(lp1066
S'0VR'
p1067
ag104
ag53
ag103
aS'IOD'
p1068
ag125
aS'PI'
p1069
ag845
at(Nttbag10
(g11
(I0
tS'b'
tRp1070
((I1
(I8
tg14
I00
(lp1071
g1067
ag104
ag53
ag103
ag1068
ag125
ag1069
ag845
at(Nttba(lp1072
g10
(g22
(I0
tS'b'
tRp1073
(I1
(I8
I8
tg14
I00
(lp1074
F1
aF0
aF0
aF0.070707099999999995
aF0
aF0.050505099999999997
aF0.050505099999999997
aF0.060606100000000003
aF0
aF1
aF0
aF0
aF0
aF0
aF0
aF0
aF0
aF0
aF1
aF0
aF0
aF0
aF0
aF0
aF0.070707099999999995
aF0
aF0
aF1
aF0
aF0
aF0
aF0.29999999999999999
aF0
aF0
aF0
aF0
aF1
aF0
aF0
aF0
aF0.050505099999999997
aF0
aF0
aF0
aF0
aF1
aF1
aF0
aF0.050505099999999997
aF0
aF0
aF0
aF0
aF1
aF1
aF0
aF0.060606100000000003
aF0
aF0
aF0.29999999999999999
aF0
aF0
aF0
aF1
atba(lp1075
g10
(g11
(I0
tS'b'
tRp1076
((I1
(I8
tg14
I00
(lp1077
g1067
ag104
ag53
ag103
ag1068
ag125
ag1069
ag845
at(NttbatbbsS'UGLDDS2'
p1078
g3
(g4
g5
NtRp1079
g3
(g7
g5
NtRp1080
((lp1081
g10
(g11
(I0
tS'b'
tRp1082
((I1
(I2
tg14
I00
(lp1083
g52
ag103
at(Nttbag10
(g11
(I0
tS'b'
tRp1084
((I1
(I2
tg14
I00
(lp1085
g52
ag103
at(Nttba(lp1086
g10
(g22
(I0
tS'b'
tRp1087
(I1
(I2
I2
tg14
I00
(lp1088
F1
aF0.046979899999999998
aF0.046979899999999998
aF1
atba(lp1089
g10
(g11
(I0
tS'b'
tRp1090
((I1
(I2
tg14
I00
(lp1091
g52
ag103
at(NttbatbbsS'KAS_HP2'
p1092
g3
(g4
g5
NtRp1093
g3
(g7
g5
NtRp1094
((lp1095
g10
(g11
(I0
tS'b'
tRp1096
((I1
(I5
tg14
I00
(lp1097
g578
ag141
ag125
ag53
ag252
at(Nttbag10
(g11
(I0
tS'b'
tRp1098
((I1
(I5
tg14
I00
(lp1099
g578
ag141
ag125
ag53
ag252
at(Nttba(lp1100
g10
(g22
(I0
tS'b'
tRp1101
(I1
(I5
I5
tg14
I00
(lp1102
F1
aF0.33333299999999999
aF0
aF0
aF0.054054100000000001
aF0.33333299999999999
aF1
aF0
aF0
aF0.0218579
aF0
aF0
aF1
aF0
aF0.0273224
aF0
aF0
aF0
aF1
aF0.0053191499999999999
aF0.054054100000000001
aF0.0218579
aF0.0273224
aF0.0053191499999999999
aF1
atba(lp1103
g10
(g11
(I0
tS'b'
tRp1104
((I1
(I5
tg14
I00
(lp1105
g578
ag141
ag125
ag53
ag252
at(NttbatbbsS'GLUTRS_Gln'
p1106
g3
(g4
g5
NtRp1107
g3
(g7
g5
NtRp1108
((lp1109
g10
(g11
(I0
tS'b'
tRp1110
((I1
(I4
tg14
I00
(lp1111
g104
ag103
ag36
ag37
at(Nttbag10
(g11
(I0
tS'b'
tRp1112
((I1
(I4
tg14
I00
(lp1113
g104
ag103
ag36
ag37
at(Nttba(lp1114
g10
(g22
(I0
tS'b'
tRp1115
(I1
(I4
I4
tg14
I00
(lp1116
F1
aF0
aF0
aF0
aF0
aF1
aF0.040697700000000003
aF0
aF0
aF0.040697700000000003
aF1
aF0
aF0
aF0
aF0
aF1
atba(lp1117
g10
(g11
(I0
tS'b'
tRp1118
((I1
(I4
tg14
I00
(lp1119
g104
ag103
ag36
ag37
at(NttbatbbsS'FASC200ACP'
p1120
g3
(g4
g5
NtRp1121
g3
(g7
g5
NtRp1122
((lp1123
g10
(g11
(I0
tS'b'
tRp1124
((I1
(I5
tg14
I00
(lp1125
g578
ag141
ag125
ag53
ag252
at(Nttbag10
(g11
(I0
tS'b'
tRp1126
((I1
(I5
tg14
I00
(lp1127
g578
ag141
ag125
ag53
ag252
at(Nttba(lp1128
g10
(g22
(I0
tS'b'
tRp1129
(I1
(I5
I5
tg14
I00
(lp1130
F1
aF0.33333299999999999
aF0
aF0
aF0.054054100000000001
aF0.33333299999999999
aF1
aF0
aF0
aF0.0218579
aF0
aF0
aF1
aF0
aF0.0273224
aF0
aF0
aF0
aF1
aF0.0053191499999999999
aF0.054054100000000001
aF0.0218579
aF0.0273224
aF0.0053191499999999999
aF1
atba(lp1131
g10
(g11
(I0
tS'b'
tRp1132
((I1
(I5
tg14
I00
(lp1133
g578
ag141
ag125
ag53
ag252
at(NttbatbbsS'IPMDr'
p1134
g3
(g4
g5
NtRp1135
g3
(g7
g5
NtRp1136
((lp1137
g10
(g11
(I0
tS'b'
tRp1138
((I1
(I1
tg14
I00
(lp1139
g104
at(Nttbag10
(g11
(I0
tS'b'
tRp1140
((I1
(I1
tg14
I00
(lp1141
g104
at(Nttba(lp1142
g10
(g22
(I0
tS'b'
tRp1143
(I1
(I1
I1
tg14
I00
(lp1144
F1
atba(lp1145
g10
(g11
(I0
tS'b'
tRp1146
((I1
(I1
tg14
I00
(lp1147
g104
at(NttbatbbsS'ADSL2r'
p1148
g3
(g4
g5
NtRp1149
g3
(g7
g5
NtRp1150
((lp1151
g10
(g11
(I0
tS'b'
tRp1152
((I1
(I1
tg14
I00
(lp1153
g53
at(Nttbag10
(g11
(I0
tS'b'
tRp1154
((I1
(I1
tg14
I00
(lp1155
g53
at(Nttba(lp1156
g10
(g22
(I0
tS'b'
tRp1157
(I1
(I1
I1
tg14
I00
(lp1158
F1
atba(lp1159
g10
(g11
(I0
tS'b'
tRp1160
((I1
(I1
tg14
I00
(lp1161
g53
at(NttbatbbsS'FASC181ACP'
p1162
g3
(g4
g5
NtRp1163
g3
(g7
g5
NtRp1164
((lp1165
g10
(g11
(I0
tS'b'
tRp1166
((I1
(I5
tg14
I00
(lp1167
g578
ag141
ag125
ag53
ag252
at(Nttbag10
(g11
(I0
tS'b'
tRp1168
((I1
(I5
tg14
I00
(lp1169
g578
ag141
ag125
ag53
ag252
at(Nttba(lp1170
g10
(g22
(I0
tS'b'
tRp1171
(I1
(I5
I5
tg14
I00
(lp1172
F1
aF0.33333299999999999
aF0
aF0
aF0.054054100000000001
aF0.33333299999999999
aF1
aF0
aF0
aF0.0218579
aF0
aF0
aF1
aF0
aF0.0273224
aF0
aF0
aF0
aF1
aF0.0053191499999999999
aF0.054054100000000001
aF0.0218579
aF0.0273224
aF0.0053191499999999999
aF1
atba(lp1173
g10
(g11
(I0
tS'b'
tRp1174
((I1
(I5
tg14
I00
(lp1175
g578
ag141
ag125
ag53
ag252
at(NttbatbbsS'GRTT'
p1176
g3
(g4
g5
NtRp1177
g3
(g7
g5
NtRp1178
((lp1179
g10
(g11
(I0
tS'b'
tRp1180
((I1
(I2
tg14
I00
(lp1181
g141
aS'MLY'
p1182
at(Nttbag10
(g11
(I0
tS'b'
tRp1183
((I1
(I2
tg14
I00
(lp1184
g141
ag1182
at(Nttba(lp1185
g10
(g22
(I0
tS'b'
tRp1186
(I1
(I2
I2
tg14
I00
(lp1187
F1
aF0.090909100000000007
aF0.090909100000000007
aF1
atba(lp1188
g10
(g11
(I0
tS'b'
tRp1189
((I1
(I2
tg14
I00
(lp1190
g141
ag1182
at(NttbatbbsS'LMN2abc'
p1191
g3
(g4
g5
NtRp1192
g3
(g7
g5
NtRp1193
((lp1194
g10
(g11
(I0
tS'b'
tRp1195
((I1
(I4
tg14
I00
(lp1196
g215
ag68
ag218
ag358
at(Nttbag10
(g11
(I0
tS'b'
tRp1197
((I1
(I4
tg14
I00
(lp1198
g215
ag68
ag218
ag358
at(Nttba(lp1199
g10
(g22
(I0
tS'b'
tRp1200
(I1
(I4
I4
tg14
I00
(lp1201
F1
aF0
aF0.78723399999999999
aF0.78723399999999999
aF0
aF1
aF0
aF0
aF0.78723399999999999
aF0
aF1
aF1
aF0.78723399999999999
aF0
aF1
aF1
atba(lp1202
g10
(g11
(I0
tS'b'
tRp1203
((I1
(I4
tg14
I00
(lp1204
g215
ag68
ag218
ag358
at(NttbatbbsS'INSTabc'
p1205
g3
(g4
g5
NtRp1206
g3
(g7
g5
NtRp1207
((lp1208
g10
(g11
(I0
tS'b'
tRp1209
((I1
(I2
tg14
I00
(lp1210
S'PEG'
p1211
ag53
at(Nttbag10
(g11
(I0
tS'b'
tRp1212
((I1
(I2
tg14
I00
(lp1213
g1211
ag53
at(Nttba(lp1214
g10
(g22
(I0
tS'b'
tRp1215
(I1
(I2
I2
tg14
I00
(lp1216
F1
aF0
aF0
aF1
atba(lp1217
g10
(g11
(I0
tS'b'
tRp1218
((I1
(I2
tg14
I00
(lp1219
g1211
ag53
at(NttbatbbsS'ASPTA'
p1220
g3
(g4
g5
NtRp1221
g3
(g7
g5
NtRp1222
((lp1223
g10
(g11
(I0
tS'b'
tRp1224
((I1
(I3
tg14
I00
(lp1225
g282
ag170
ag53
at(Nttbag10
(g11
(I0
tS'b'
tRp1226
((I1
(I3
tg14
I00
(lp1227
g282
ag170
ag53
at(Nttba(lp1228
g10
(g22
(I0
tS'b'
tRp1229
(I1
(I3
I3
tg14
I00
(lp1230
F1
aF0.635714
aF0.0071942400000000002
aF0.635714
aF1
aF0.01
aF0.0071942400000000002
aF0.01
aF1
atba(lp1231
g10
(g11
(I0
tS'b'
tRp1232
((I1
(I3
tg14
I00
(lp1233
g282
ag170
ag53
at(NttbatbbsS'DDGLKr'
p1234
g3
(g4
g5
NtRp1235
g3
(g7
g5
NtRp1236
((lp1237
g10
(g11
(I0
tS'b'
tRp1238
((I1
(I2
tg14
I00
(lp1239
g68
ag221
at(Nttbag10
(g11
(I0
tS'b'
tRp1240
((I1
(I2
tg14
I00
(lp1241
g68
ag221
at(Nttba(lp1242
g10
(g22
(I0
tS'b'
tRp1243
(I1
(I2
I2
tg14
I00
(lp1244
F1
aF0
aF0
aF1
atba(lp1245
g10
(g11
(I0
tS'b'
tRp1246
((I1
(I2
tg14
I00
(lp1247
g68
ag221
at(NttbatbbsS'FASC182ACP'
p1248
g3
(g4
g5
NtRp1249
g3
(g7
g5
NtRp1250
((lp1251
g10
(g11
(I0
tS'b'
tRp1252
((I1
(I5
tg14
I00
(lp1253
g578
ag141
ag125
ag53
ag252
at(Nttbag10
(g11
(I0
tS'b'
tRp1254
((I1
(I5
tg14
I00
(lp1255
g578
ag141
ag125
ag53
ag252
at(Nttba(lp1256
g10
(g22
(I0
tS'b'
tRp1257
(I1
(I5
I5
tg14
I00
(lp1258
F1
aF0.33333299999999999
aF0
aF0
aF0.054054100000000001
aF0.33333299999999999
aF1
aF0
aF0
aF0.0218579
aF0
aF0
aF1
aF0
aF0.0273224
aF0
aF0
aF0
aF1
aF0.0053191499999999999
aF0.054054100000000001
aF0.0218579
aF0.0273224
aF0.0053191499999999999
aF1
atba(lp1259
g10
(g11
(I0
tS'b'
tRp1260
((I1
(I5
tg14
I00
(lp1261
g578
ag141
ag125
ag53
ag252
at(NttbatbbsS'DHPPDA'
p1262
g3
(g4
g5
NtRp1263
g3
(g7
g5
NtRp1264
((lp1265
g10
(g11
(I0
tS'b'
tRp1266
((I1
(I4
tg14
I00
(lp1267
g104
ag103
ag1024
ag37
at(Nttbag10
(g11
(I0
tS'b'
tRp1268
((I1
(I4
tg14
I00
(lp1269
g104
ag103
ag1024
ag37
at(Nttba(lp1270
g10
(g22
(I0
tS'b'
tRp1271
(I1
(I4
I4
tg14
I00
(lp1272
F1
aF0
aF0
aF0
aF0
aF1
aF0.03125
aF0
aF0
aF0.03125
aF1
aF0.0044642900000000001
aF0
aF0
aF0.0044642900000000001
aF1
atba(lp1273
g10
(g11
(I0
tS'b'
tRp1274
((I1
(I4
tg14
I00
(lp1275
g104
ag103
ag1024
ag37
at(NttbatbbsS'MANBabc'
p1276
g3
(g4
g5
NtRp1277
g3
(g7
g5
NtRp1278
((lp1279
g10
(g11
(I0
tS'b'
tRp1280
((I1
(I9
tg14
I00
(lp1281
g34
ag104
ag141
ag69
aS'FMT'
p1282
ag219
ag72
ag105
aS'MAB'
p1283
at(Nttbag10
(g11
(I0
tS'b'
tRp1284
((I1
(I9
tg14
I00
(lp1285
g34
ag104
ag141
ag69
ag1282
ag219
ag72
ag105
ag1283
at(Nttba(lp1286
g10
(g22
(I0
tS'b'
tRp1287
(I1
(I9
I9
tg14
I00
(lp1288
F1
aF0
aF0.42857099999999998
aF0.071428599999999995
aF0.5
aF0.074999999999999997
aF0
aF0
aF0.059999999999999998
aF0
aF1
aF0
aF0
aF0
aF0
aF0
aF0
aF0
aF0.42857099999999998
aF0
aF1
aF0.074999999999999997
aF0.16666700000000001
aF0.108108
aF0
aF0
aF0.085106399999999999
aF0.071428599999999995
aF0
aF0.074999999999999997
aF1
aF0.024390200000000001
aF0.041095899999999998
aF0
aF0
aF0.036144599999999999
aF0.5
aF0
aF0.16666700000000001
aF0.024390200000000001
aF1
aF0.025641000000000001
aF0
aF0
aF0.020408200000000001
aF0.074999999999999997
aF0
aF0.108108
aF0.041095899999999998
aF0.025641000000000001
aF1
aF0
aF0
aF0.78723399999999999
aF0
aF0
aF0
aF0
aF0
aF0
aF1
aF0
aF0
aF0
aF0
aF0
aF0
aF0
aF0
aF0
aF1
aF0
aF0.059999999999999998
aF0
aF0.085106399999999999
aF0.036144599999999999
aF0.020408200000000001
aF0.78723399999999999
aF0
aF0
aF1
atba(lp1289
g10
(g11
(I0
tS'b'
tRp1290
((I1
(I9
tg14
I00
(lp1291
g34
ag104
ag141
ag69
ag1282
ag219
ag72
ag105
ag1283
at(NttbatbbsS'LEUTA'
p1292
g3
(g4
g5
NtRp1293
g3
(g7
g5
NtRp1294
((lp1295
g10
(g11
(I0
tS'b'
tRp1296
((I1
(I4
tg14
I00
(lp1297
g185
ag104
ag35
ag170
at(Nttbag10
(g11
(I0
tS'b'
tRp1298
((I1
(I4
tg14
I00
(lp1299
g185
ag104
ag35
ag170
at(Nttba(lp1300
g10
(g22
(I0
tS'b'
tRp1301
(I1
(I4
I4
tg14
I00
(lp1302
F1
aF0
aF0.35999999999999999
aF0.061946899999999999
aF0
aF1
aF0
aF0
aF0.35999999999999999
aF0
aF1
aF0.029703
aF0.061946899999999999
aF0
aF0.029703
aF1
atba(lp1303
g10
(g11
(I0
tS'b'
tRp1304
((I1
(I4
tg14
I00
(lp1305
g185
ag104
ag35
ag170
at(NttbatbbsS'P_DIPS'
p1306
g3
(g4
g5
NtRp1307
g3
(g7
g5
NtRp1308
((lp1309
g10
(g11
(I0
tS'b'
tRp1310
((I1
(I4
tg14
I00
(lp1311
S'1KH'
p1312
ag104
ag103
ag125
at(Nttbag10
(g11
(I0
tS'b'
tRp1313
((I1
(I4
tg14
I00
(lp1314
g1312
ag104
ag103
ag125
at(Nttba(lp1315
g10
(g22
(I0
tS'b'
tRp1316
(I1
(I4
I4
tg14
I00
(lp1317
F1
aF0
aF0.16279099999999999
aF0
aF0
aF1
aF0
aF0
aF0.16279099999999999
aF0
aF1
aF0
aF0
aF0
aF0
aF1
atba(lp1318
g10
(g11
(I0
tS'b'
tRp1319
((I1
(I4
tg14
I00
(lp1320
g1312
ag104
ag103
ag125
at(NttbatbbsS'PGL'
p1321
g3
(g4
g5
NtRp1322
g3
(g7
g5
NtRp1323
((lp1324
g10
(g11
(I0
tS'b'
tRp1325
((I1
(I5
tg14
I00
(lp1326
g185
ag141
ag1282
ag53
ag297
at(Nttbag10
(g11
(I0
tS'b'
tRp1327
((I1
(I5
tg14
I00
(lp1328
g185
ag141
ag1282
ag53
ag297
at(Nttba(lp1329
g10
(g22
(I0
tS'b'
tRp1330
(I1
(I5
I5
tg14
I00
(lp1331
F1
aF0.16
aF0.12
aF0
aF0.214286
aF0.16
aF1
aF0.16666700000000001
aF0
aF0.29999999999999999
aF0.12
aF0.16666700000000001
aF1
aF0
aF0.090909100000000007
aF0
aF0
aF0
aF1
aF0
aF0.214286
aF0.29999999999999999
aF0.090909100000000007
aF0
aF1
atba(lp1332
g10
(g11
(I0
tS'b'
tRp1333
((I1
(I5
tg14
I00
(lp1334
g185
ag141
ag1282
ag53
ag297
at(NttbatbbsS'FASC220ACP'
p1335
g3
(g4
g5
NtRp1336
g3
(g7
g5
NtRp1337
((lp1338
g10
(g11
(I0
tS'b'
tRp1339
((I1
(I5
tg14
I00
(lp1340
g578
ag141
ag125
ag53
ag252
at(Nttbag10
(g11
(I0
tS'b'
tRp1341
((I1
(I5
tg14
I00
(lp1342
g578
ag141
ag125
ag53
ag252
at(Nttba(lp1343
g10
(g22
(I0
tS'b'
tRp1344
(I1
(I5
I5
tg14
I00
(lp1345
F1
aF0.33333299999999999
aF0
aF0
aF0.054054100000000001
aF0.33333299999999999
aF1
aF0
aF0
aF0.0218579
aF0
aF0
aF1
aF0
aF0.0273224
aF0
aF0
aF0
aF1
aF0.0053191499999999999
aF0.054054100000000001
aF0.0218579
aF0.0273224
aF0.0053191499999999999
aF1
atba(lp1346
g10
(g11
(I0
tS'b'
tRp1347
((I1
(I5
tg14
I00
(lp1348
g578
ag141
ag125
ag53
ag252
at(NttbatbbsS'FASC221ACP'
p1349
g3
(g4
g5
NtRp1350
g3
(g7
g5
NtRp1351
((lp1352
g10
(g11
(I0
tS'b'
tRp1353
((I1
(I5
tg14
I00
(lp1354
g578
ag141
ag125
ag53
ag252
at(Nttbag10
(g11
(I0
tS'b'
tRp1355
((I1
(I5
tg14
I00
(lp1356
g578
ag141
ag125
ag53
ag252
at(Nttba(lp1357
g10
(g22
(I0
tS'b'
tRp1358
(I1
(I5
I5
tg14
I00
(lp1359
F1
aF0.33333299999999999
aF0
aF0
aF0.054054100000000001
aF0.33333299999999999
aF1
aF0
aF0
aF0.0218579
aF0
aF0
aF1
aF0
aF0.0273224
aF0
aF0
aF0
aF1
aF0.0053191499999999999
aF0.054054100000000001
aF0.0218579
aF0.0273224
aF0.0053191499999999999
aF1
atba(lp1360
g10
(g11
(I0
tS'b'
tRp1361
((I1
(I5
tg14
I00
(lp1362
g578
ag141
ag125
ag53
ag252
at(NttbatbbsS'LDH_L'
p1363
g3
(g4
g5
NtRp1364
g3
(g7
g5
NtRp1365
((lp1366
g10
(g11
(I0
tS'b'
tRp1367
((I1
(I4
tg14
I00
(lp1368
g106
aS'FBP'
p1369
ag252
aS'OXM'
p1370
at(Nttbag10
(g11
(I0
tS'b'
tRp1371
((I1
(I4
tg14
I00
(lp1372
g106
ag1369
ag252
ag1370
at(Nttba(lp1373
g10
(g22
(I0
tS'b'
tRp1374
(I1
(I4
I4
tg14
I00
(lp1375
F1
aF0
aF0
aF0
aF0
aF1
aF0.30851099999999998
aF0.055555599999999997
aF0
aF0.30851099999999998
aF1
aF0.053763400000000003
aF0
aF0.055555599999999997
aF0.053763400000000003
aF1
atba(lp1376
g10
(g11
(I0
tS'b'
tRp1377
((I1
(I4
tg14
I00
(lp1378
g106
ag1369
ag252
ag1370
at(NttbatbbsS'GLCabc'
p1379
g3
(g4
g5
NtRp1380
g3
(g7
g5
NtRp1381
((lp1382
g10
(g11
(I0
tS'b'
tRp1383
((I1
(I1
tg14
I00
(lp1384
g358
at(Nttbag10
(g11
(I0
tS'b'
tRp1385
((I1
(I1
tg14
I00
(lp1386
g358
at(Nttba(lp1387
g10
(g22
(I0
tS'b'
tRp1388
(I1
(I1
I1
tg14
I00
(lp1389
F1
atba(lp1390
g10
(g11
(I0
tS'b'
tRp1391
((I1
(I1
tg14
I00
(lp1392
g358
at(NttbatbbsS'NADK'
p1393
g3
(g4
g5
NtRp1394
g3
(g7
g5
NtRp1395
((lp1396
g10
(g11
(I0
tS'b'
tRp1397
((I1
(I1
tg14
I00
(lp1398
g53
at(Nttbag10
(g11
(I0
tS'b'
tRp1399
((I1
(I1
tg14
I00
(lp1400
g53
at(Nttba(lp1401
g10
(g22
(I0
tS'b'
tRp1402
(I1
(I1
I1
tg14
I00
(lp1403
F1
atba(lp1404
g10
(g11
(I0
tS'b'
tRp1405
((I1
(I1
tg14
I00
(lp1406
g53
at(NttbatbbsS'AICARTi'
p1407
g3
(g4
g5
NtRp1408
g3
(g7
g5
NtRp1409
((lp1410
g10
(g11
(I0
tS'b'
tRp1411
((I1
(I2
tg14
I00
(lp1412
S'K'
ag267
at(Nttbag10
(g11
(I0
tS'b'
tRp1413
((I1
(I2
tg14
I00
(lp1414
S'K'
ag267
at(Nttba(lp1415
g10
(g22
(I0
tS'b'
tRp1416
(I1
(I2
I2
tg14
I00
(lp1417
F1
aF0
aF0
aF1
atba(lp1418
g10
(g11
(I0
tS'b'
tRp1419
((I1
(I2
tg14
I00
(lp1420
S'K'
ag267
at(NttbatbbsS'LCYSTAT'
p1421
g3
(g4
g5
NtRp1422
g3
(g7
g5
NtRp1423
((lp1424
g10
(g11
(I0
tS'b'
tRp1425
((I1
(I3
tg14
I00
(lp1426
g282
ag170
ag53
at(Nttbag10
(g11
(I0
tS'b'
tRp1427
((I1
(I3
tg14
I00
(lp1428
g282
ag170
ag53
at(Nttba(lp1429
g10
(g22
(I0
tS'b'
tRp1430
(I1
(I3
I3
tg14
I00
(lp1431
F1
aF0.635714
aF0.0071942400000000002
aF0.635714
aF1
aF0.01
aF0.0071942400000000002
aF0.01
aF1
atba(lp1432
g10
(g11
(I0
tS'b'
tRp1433
((I1
(I3
tg14
I00
(lp1434
g282
ag170
ag53
at(NttbatbbsS'FASC141ACP'
p1435
g3
(g4
g5
NtRp1436
g3
(g7
g5
NtRp1437
((lp1438
g10
(g11
(I0
tS'b'
tRp1439
((I1
(I5
tg14
I00
(lp1440
g578
ag141
ag125
ag53
ag252
at(Nttbag10
(g11
(I0
tS'b'
tRp1441
((I1
(I5
tg14
I00
(lp1442
g578
ag141
ag125
ag53
ag252
at(Nttba(lp1443
g10
(g22
(I0
tS'b'
tRp1444
(I1
(I5
I5
tg14
I00
(lp1445
F1
aF0.33333299999999999
aF0
aF0
aF0.054054100000000001
aF0.33333299999999999
aF1
aF0
aF0
aF0.0218579
aF0
aF0
aF1
aF0
aF0.0273224
aF0
aF0
aF0
aF1
aF0.0053191499999999999
aF0.054054100000000001
aF0.0218579
aF0.0273224
aF0.0053191499999999999
aF1
atba(lp1446
g10
(g11
(I0
tS'b'
tRp1447
((I1
(I5
tg14
I00
(lp1448
g578
ag141
ag125
ag53
ag252
at(NttbatbbsS'MALTabc'
p1449
g3
(g4
g5
NtRp1450
g3
(g7
g5
NtRp1451
((lp1452
g10
(g11
(I0
tS'b'
tRp1453
((I1
(I1
tg14
I00
(lp1454
g358
at(Nttbag10
(g11
(I0
tS'b'
tRp1455
((I1
(I1
tg14
I00
(lp1456
g358
at(Nttba(lp1457
g10
(g22
(I0
tS'b'
tRp1458
(I1
(I1
I1
tg14
I00
(lp1459
F1
atba(lp1460
g10
(g11
(I0
tS'b'
tRp1461
((I1
(I1
tg14
I00
(lp1462
g358
at(NttbatbbsS'DXPRI'
p1463
g3
(g4
g5
NtRp1464
g3
(g7
g5
NtRp1465
((lp1466
g10
(g11
(I0
tS'b'
tRp1467
((I1
(I4
tg14
I00
(lp1468
S'FOM'
p1469
ag72
ag1024
ag35
at(Nttbag10
(g11
(I0
tS'b'
tRp1470
((I1
(I4
tg14
I00
(lp1471
g1469
ag72
ag1024
ag35
at(Nttba(lp1472
g10
(g22
(I0
tS'b'
tRp1473
(I1
(I4
I4
tg14
I00
(lp1474
F1
aF0.023809500000000001
aF0.085714299999999993
aF0.0408163
aF0.023809500000000001
aF1
aF0
aF0
aF0.085714299999999993
aF0
aF1
aF0.040178600000000002
aF0.0408163
aF0
aF0.040178600000000002
aF1
atba(lp1475
g10
(g11
(I0
tS'b'
tRp1476
((I1
(I4
tg14
I00
(lp1477
g1469
ag72
ag1024
ag35
at(NttbatbbsS'BTS3'
p1478
g3
(g4
g5
NtRp1479
g3
(g7
g5
NtRp1480
((lp1481
g10
(g11
(I0
tS'b'
tRp1482
((I1
(I21
tg14
I00
(lp1483
S'1N7'
p1484
ag785
aS'CO3'
p1485
aS'F3S'
p1486
aS'OTY'
p1487
aS'SAH'
p1488
ag429
aS'CPS'
p1489
ag563
aS'H2S'
p1490
ag104
aS'CSO'
p1491
aS'FES'
p1492
ag103
aS'IPA'
p1493
aS'SAM'
p1494
ag53
aS'5AD'
p1495
aS'SAT'
p1496
ag1211
aS'SCN'
p1497
at(Nttbag10
(g11
(I0
tS'b'
tRp1498
((I1
(I21
tg14
I00
(lp1499
g1484
ag785
ag1485
ag1486
ag1487
ag1488
ag429
ag1489
ag563
ag1490
ag104
ag1491
ag1492
ag103
ag1493
ag1494
ag53
ag1495
ag1496
ag1211
ag1497
at(Nttba(lp1500
g10
(g22
(I0
tS'b'
tRp1501
(I1
(I21
I21
tg14
I00
(lp1502
F1
aF0
aF0.027026999999999999
aF0.037037
aF0.17431199999999999
aF0.202186
aF0.036585399999999997
aF0.91666700000000001
aF0.013888899999999999
aF0.013888899999999999
aF0
aF0.23749999999999999
aF0.025974000000000001
aF0.067567600000000005
aF0.055555599999999997
aF0.202186
aF0.068493200000000004
aF0.14743600000000001
aF0.26666699999999999
aF0.0379747
aF0.027026999999999999
aF0
aF1
aF0
aF0
aF0
aF0
aF0
aF0
aF0
aF0
aF0
aF0
aF0
aF0
aF0
aF0
aF0
aF0
aF0
aF0
aF0
aF0.027026999999999999
aF0
aF1
aF0
aF0.052631600000000001
aF0.020134200000000001
aF0
aF0.029411799999999998
aF0
aF0
aF0
aF0.107143
aF0
aF0.10000000000000001
aF0.14285700000000001
aF0.020134200000000001
aF0
aF0.0090909100000000007
aF0.125
aF0.076923099999999994
aF0
aF0.037037
aF0
aF0
aF1
aF0.0149254
aF0.019108300000000002
aF0.92307700000000004
aF0.012987
aF0.083333299999999999
aF0.083333299999999999
aF0
aF0.054054100000000001
aF0.58333299999999999
aF0
aF0
aF0.019108300000000002
aF0.058823500000000001
aF0.0084745800000000007
aF0.060606100000000003
aF0
aF0.066666699999999995
aF0.17431199999999999
aF0
aF0.052631600000000001
aF0.0149254
aF1
aF0.13333300000000001
aF0.014705899999999999
aF0.16190499999999999
aF0
aF0
aF0
aF0.23880599999999999
aF0
aF0.086206900000000003
aF0.071428599999999995
aF0.13333300000000001
aF0
aF0.124138
aF0.144928
aF0.064516100000000007
aF0
aF0.202186
aF0
aF0.020134200000000001
aF0.019108300000000002
aF0.13333300000000001
aF1
aF0.018987299999999999
aF0.18232000000000001
aF0.0067567599999999997
aF0.0067567599999999997
aF0
aF0.11465
aF0.013071899999999999
aF0.0472973
aF0.027026999999999999
aF1
aF0.0198675
aF0.72297299999999998
aF0.082278500000000004
aF0.067567600000000005
aF0.027026999999999999
aF0.036585399999999997
aF0
aF0
aF0.92307700000000004
aF0.014705899999999999
aF0.018987299999999999
aF1
aF0.0128205
aF0.076923099999999994
aF0.076923099999999994
aF0
aF0.052631600000000001
aF0.538462
aF0
aF0
aF0.018987299999999999
aF0.055555599999999997
aF0.0084033600000000003
aF0.058823500000000001
aF0
aF0.0625
aF0.91666700000000001
aF0
aF0.029411799999999998
aF0.012987
aF0.16190499999999999
aF0.18232000000000001
aF0.0128205
aF1
aF0
aF0.0151515
aF0
aF0.23999999999999999
aF0.013888899999999999
aF0.073529399999999995
aF0.060606100000000003
aF0.18232000000000001
aF0.074626899999999996
aF0.130719
aF0.253521
aF0.041095899999999998
aF0.029411799999999998
aF0.013888899999999999
aF0
aF0
aF0.083333299999999999
aF0
aF0.0067567599999999997
aF0.076923099999999994
aF0
aF1
aF0
aF0
aF0
aF0.14285700000000001
aF0
aF0
aF0.0067567599999999997
aF0
aF0
aF0.043478299999999998
aF0
aF0
aF0.013888899999999999
aF0
aF0
aF0.083333299999999999
aF0
aF0.0067567599999999997
aF0.076923099999999994
aF0.0151515
aF0
aF1
aF0
aF0.037037
aF0.14285700000000001
aF0
aF0
aF0.0067567599999999997
aF0.16666700000000001
aF0
aF0.043478299999999998
aF0
aF0.25
aF0
aF0
aF0
aF0
aF0
aF0
aF0
aF0
aF0
aF0
aF1
aF0
aF0
aF0
aF0
aF0
aF0
aF0
aF0
aF0
aF0
aF0.23749999999999999
aF0
aF0.107143
aF0.054054100000000001
aF0.23880599999999999
aF0.11465
aF0.052631600000000001
aF0.23999999999999999
aF0
aF0.037037
aF0
aF1
aF0.030303
aF0.17241400000000001
aF0.148148
aF0.11465
aF0.064516100000000007
aF0.071999999999999995
aF0.31578899999999999
aF0.088235300000000003
aF0.107143
aF0.025974000000000001
aF0
aF0
aF0.58333299999999999
aF0
aF0.013071899999999999
aF0.538462
aF0.013888899999999999
aF0.14285700000000001
aF0.14285700000000001
aF0
aF0.030303
aF1
aF0
aF0
aF0.013071899999999999
aF0.083333299999999999
aF0
aF0.071428599999999995
aF0
aF0.10000000000000001
aF0.067567600000000005
aF0
aF0.10000000000000001
aF0
aF0.086206900000000003
aF0.0472973
aF0
aF0.073529399999999995
aF0
aF0
aF0
aF0.17241400000000001
aF0
aF1
aF0.57142899999999996
aF0.0472973
aF0
aF0.065420599999999995
aF0.111111
aF0.30769200000000002
aF0
aF0.055555599999999997
aF0
aF0.14285700000000001
aF0
aF0.071428599999999995
aF0.027026999999999999
aF0
aF0.060606100000000003
aF0
aF0
aF0
aF0.148148
aF0
aF0.57142899999999996
aF1
aF0.027026999999999999
aF0
aF0.037383199999999998
aF0.125
aF0.272727
aF0
aF0.202186
aF0
aF0.020134200000000001
aF0.019108300000000002
aF0.13333300000000001
aF1
aF0.018987299999999999
aF0.18232000000000001
aF0.0067567599999999997
aF0.0067567599999999997
aF0
aF0.11465
aF0.013071899999999999
aF0.0472973
aF0.027026999999999999
aF1
aF0.0198675
aF0.72297299999999998
aF0.082278500000000004
aF0.067567600000000005
aF0.027026999999999999
aF0.068493200000000004
aF0
aF0
aF0.058823500000000001
aF0
aF0.0198675
aF0.055555599999999997
aF0.074626899999999996
aF0
aF0.16666700000000001
aF0
aF0.064516100000000007
aF0.083333299999999999
aF0
aF0
aF0.0198675
aF1
aF0.0089285700000000003
aF0.20833299999999999
aF0
aF0.111111
aF0.14743600000000001
aF0
aF0.0090909100000000007
aF0.0084745800000000007
aF0.124138
aF0.72297299999999998
aF0.0084033600000000003
aF0.130719
aF0
aF0
aF0
aF0.071999999999999995
aF0
aF0.065420599999999995
aF0.037383199999999998
aF0.72297299999999998
aF0.0089285700000000003
aF1
aF0.040000000000000001
aF0.093457899999999997
aF0.0090909100000000007
aF0.26666699999999999
aF0
aF0.125
aF0.060606100000000003
aF0.144928
aF0.082278500000000004
aF0.058823500000000001
aF0.253521
aF0.043478299999999998
aF0.043478299999999998
aF0
aF0.31578899999999999
aF0.071428599999999995
aF0.111111
aF0.125
aF0.082278500000000004
aF0.20833299999999999
aF0.040000000000000001
aF1
aF0.10000000000000001
aF0.080000000000000002
aF0.0379747
aF0
aF0.076923099999999994
aF0
aF0.064516100000000007
aF0.067567600000000005
aF0
aF0.041095899999999998
aF0
aF0
aF0
aF0.088235300000000003
aF0
aF0.30769200000000002
aF0.272727
aF0.067567600000000005
aF0
aF0.093457899999999997
aF0.10000000000000001
aF1
aF0
aF0.027026999999999999
aF0
aF0
aF0.066666699999999995
aF0
aF0.027026999999999999
aF0.0625
aF0.029411799999999998
aF0
aF0.25
aF0
aF0.107143
aF0.10000000000000001
aF0
aF0
aF0.027026999999999999
aF0.111111
aF0.0090909100000000007
aF0.080000000000000002
aF0
aF1
atba(lp1503
g10
(g11
(I0
tS'b'
tRp1504
((I1
(I21
tg14
I00
(lp1505
g1484
ag785
ag1485
ag1486
ag1487
ag1488
ag429
ag1489
ag563
ag1490
ag104
ag1491
ag1492
ag103
ag1493
ag1494
ag53
ag1495
ag1496
ag1211
ag1497
at(NttbatbbsS'ME1'
p1506
g3
(g4
g5
NtRp1507
g3
(g7
g5
NtRp1508
((lp1509
g10
(g11
(I0
tS'b'
tRp1510
((I1
(I2
tg14
I00
(lp1511
g252
ag37
at(Nttbag10
(g11
(I0
tS'b'
tRp1512
((I1
(I2
tg14
I00
(lp1513
g252
ag37
at(Nttba(lp1514
g10
(g22
(I0
tS'b'
tRp1515
(I1
(I2
I2
tg14
I00
(lp1516
F1
aF0.0054644799999999999
aF0.0054644799999999999
aF1
atba(lp1517
g10
(g11
(I0
tS'b'
tRp1518
((I1
(I2
tg14
I00
(lp1519
g252
ag37
at(NttbatbbsS'IGPS'
p1520
g3
(g4
g5
NtRp1521
g3
(g7
g5
NtRp1522
((lp1523
g10
(g11
(I0
tS'b'
tRp1524
((I1
(I2
tg14
I00
(lp1525
g104
ag53
at(Nttbag10
(g11
(I0
tS'b'
tRp1526
((I1
(I2
tg14
I00
(lp1527
g104
ag53
at(Nttba(lp1528
g10
(g22
(I0
tS'b'
tRp1529
(I1
(I2
I2
tg14
I00
(lp1530
F1
aF0
aF0
aF1
atba(lp1531
g10
(g11
(I0
tS'b'
tRp1532
((I1
(I2
tg14
I00
(lp1533
g104
ag53
at(NttbatbbsS'MALTTRabc'
p1534
g3
(g4
g5
NtRp1535
g3
(g7
g5
NtRp1536
((lp1537
g10
(g11
(I0
tS'b'
tRp1538
((I1
(I1
tg14
I00
(lp1539
g358
at(Nttbag10
(g11
(I0
tS'b'
tRp1540
((I1
(I1
tg14
I00
(lp1541
g358
at(Nttba(lp1542
g10
(g22
(I0
tS'b'
tRp1543
(I1
(I1
I1
tg14
I00
(lp1544
F1
atba(lp1545
g10
(g11
(I0
tS'b'
tRp1546
((I1
(I1
tg14
I00
(lp1547
g358
at(NttbatbbsS'MDH'
p1548
g3
(g4
g5
NtRp1549
g3
(g7
g5
NtRp1550
((lp1551
g10
(g11
(I0
tS'b'
tRp1552
((I1
(I4
tg14
I00
(lp1553
g106
ag1369
ag252
ag1370
at(Nttbag10
(g11
(I0
tS'b'
tRp1554
((I1
(I4
tg14
I00
(lp1555
g106
ag1369
ag252
ag1370
at(Nttba(lp1556
g10
(g22
(I0
tS'b'
tRp1557
(I1
(I4
I4
tg14
I00
(lp1558
F1
aF0
aF0
aF0
aF0
aF1
aF0.30851099999999998
aF0.055555599999999997
aF0
aF0.30851099999999998
aF1
aF0.053763400000000003
aF0
aF0.055555599999999997
aF0.053763400000000003
aF1
atba(lp1559
g10
(g11
(I0
tS'b'
tRp1560
((I1
(I4
tg14
I00
(lp1561
g106
ag1369
ag252
ag1370
at(NttbatbbsS'DMATT'
p1562
g3
(g4
g5
NtRp1563
g3
(g7
g5
NtRp1564
((lp1565
g10
(g11
(I0
tS'b'
tRp1566
((I1
(I2
tg14
I00
(lp1567
g141
ag1182
at(Nttbag10
(g11
(I0
tS'b'
tRp1568
((I1
(I2
tg14
I00
(lp1569
g141
ag1182
at(Nttba(lp1570
g10
(g22
(I0
tS'b'
tRp1571
(I1
(I2
I2
tg14
I00
(lp1572
F1
aF0.090909100000000007
aF0.090909100000000007
aF1
atba(lp1573
g10
(g11
(I0
tS'b'
tRp1574
((I1
(I2
tg14
I00
(lp1575
g141
ag1182
at(NttbatbbsS'SHK3Dr'
p1576
g3
(g4
g5
NtRp1577
g3
(g7
g5
NtRp1578
((lp1579
g10
(g11
(I0
tS'b'
tRp1580
((I1
(I1
tg14
I00
(lp1581
g53
at(Nttbag10
(g11
(I0
tS'b'
tRp1582
((I1
(I1
tg14
I00
(lp1583
g53
at(Nttba(lp1584
g10
(g22
(I0
tS'b'
tRp1585
(I1
(I1
I1
tg14
I00
(lp1586
F1
atba(lp1587
g10
(g11
(I0
tS'b'
tRp1588
((I1
(I1
tg14
I00
(lp1589
g53
at(NttbatbbsS'TYRTA'
p1590
g3
(g4
g5
NtRp1591
g3
(g7
g5
NtRp1592
((lp1593
g10
(g11
(I0
tS'b'
tRp1594
((I1
(I7
tg14
I00
(lp1595
g141
ag963
ag964
ag170
ag125
ag282
ag53
at(Nttbag10
(g11
(I0
tS'b'
tRp1596
((I1
(I7
tg14
I00
(lp1597
g141
ag963
ag964
ag170
ag125
ag282
ag53
at(Nttba(lp1598
g10
(g22
(I0
tS'b'
tRp1599
(I1
(I7
I7
tg14
I00
(lp1600
F1
aF0.03125
aF0.0405405
aF0.03125
aF0
aF0.022222200000000001
aF0
aF0.03125
aF1
aF0.22627700000000001
aF0.84465999999999997
aF0.052631600000000001
aF0.708955
aF0.01
aF0.0405405
aF0.22627700000000001
aF1
aF0.20863300000000001
aF0.068493200000000004
aF0.224852
aF0
aF0.03125
aF0.84465999999999997
aF0.20863300000000001
aF1
aF0.052631600000000001
aF0.635714
aF0.01
aF0
aF0.052631600000000001
aF0.068493200000000004
aF0.052631600000000001
aF1
aF0.037313399999999997
aF0
aF0.022222200000000001
aF0.708955
aF0.224852
aF0.635714
aF0.037313399999999997
aF1
aF0.0071942400000000002
aF0
aF0.01
aF0
aF0.01
aF0
aF0.0071942400000000002
aF1
atba(lp1601
g10
(g11
(I0
tS'b'
tRp1602
((I1
(I7
tg14
I00
(lp1603
g141
ag963
ag964
ag170
ag125
ag282
ag53
at(NttbatbbsS'ALCD19'
p1604
g3
(g4
g5
NtRp1605
g3
(g7
g5
NtRp1606
((lp1607
g10
(g11
(I0
tS'b'
tRp1608
((I1
(I5
tg14
I00
(lp1609
g561
ag562
ag37
ag563
ag297
at(Nttbag10
(g11
(I0
tS'b'
tRp1610
((I1
(I5
tg14
I00
(lp1611
g561
ag562
ag37
ag563
ag297
at(Nttba(lp1612
g10
(g22
(I0
tS'b'
tRp1613
(I1
(I5
I5
tg14
I00
(lp1614
F1
aF0
aF0
aF0
aF0
aF0
aF1
aF0.0052631600000000002
aF0
aF0.047368399999999998
aF0
aF0.0052631600000000002
aF1
aF0
aF0
aF0
aF0
aF0
aF1
aF0
aF0
aF0.047368399999999998
aF0
aF0
aF1
atba(lp1615
g10
(g11
(I0
tS'b'
tRp1616
((I1
(I5
tg14
I00
(lp1617
g561
ag562
ag37
ag563
ag297
at(NttbatbbsS'NP1_r'
p1618
g3
(g4
g5
NtRp1619
g3
(g7
g5
NtRp1620
((lp1621
g10
(g11
(I0
tS'b'
tRp1622
((I1
(I2
tg14
I00
(lp1623
S'GUN'
p1624
ag72
at(Nttbag10
(g11
(I0
tS'b'
tRp1625
((I1
(I2
tg14
I00
(lp1626
g1624
ag72
at(Nttba(lp1627
g10
(g22
(I0
tS'b'
tRp1628
(I1
(I2
I2
tg14
I00
(lp1629
F1
aF0
aF0
aF1
atba(lp1630
g10
(g11
(I0
tS'b'
tRp1631
((I1
(I2
tg14
I00
(lp1632
g1624
ag72
at(NttbatbbsS'MCLORi'
p1633
g3
(g4
g5
NtRp1634
g3
(g7
g5
NtRp1635
((lp1636
g10
(g11
(I0
tS'b'
tRp1637
((I1
(I4
tg14
I00
(lp1638
g106
ag1369
ag252
ag1370
at(Nttbag10
(g11
(I0
tS'b'
tRp1639
((I1
(I4
tg14
I00
(lp1640
g106
ag1369
ag252
ag1370
at(Nttba(lp1641
g10
(g22
(I0
tS'b'
tRp1642
(I1
(I4
I4
tg14
I00
(lp1643
F1
aF0
aF0
aF0
aF0
aF1
aF0.30851099999999998
aF0.055555599999999997
aF0
aF0.30851099999999998
aF1
aF0.053763400000000003
aF0
aF0.055555599999999997
aF0.053763400000000003
aF1
atba(lp1644
g10
(g11
(I0
tS'b'
tRp1645
((I1
(I4
tg14
I00
(lp1646
g106
ag1369
ag252
ag1370
at(NttbatbbsS'TALA'
p1647
g3
(g4
g5
NtRp1648
g3
(g7
g5
NtRp1649
((lp1650
g10
(g11
(I0
tS'b'
tRp1651
((I1
(I2
tg14
I00
(lp1652
g103
ag53
at(Nttbag10
(g11
(I0
tS'b'
tRp1653
((I1
(I2
tg14
I00
(lp1654
g103
ag53
at(Nttba(lp1655
g10
(g22
(I0
tS'b'
tRp1656
(I1
(I2
I2
tg14
I00
(lp1657
F1
aF0
aF0
aF1
atba(lp1658
g10
(g11
(I0
tS'b'
tRp1659
((I1
(I2
tg14
I00
(lp1660
g103
ag53
at(NttbatbbsS'MI1PS'
p1661
g3
(g4
g5
NtRp1662
g3
(g7
g5
NtRp1663
((lp1664
g10
(g11
(I0
tS'b'
tRp1665
((I1
(I3
tg14
I00
(lp1666
g104
ag72
ag252
at(Nttbag10
(g11
(I0
tS'b'
tRp1667
((I1
(I3
tg14
I00
(lp1668
g104
ag72
ag252
at(Nttba(lp1669
g10
(g22
(I0
tS'b'
tRp1670
(I1
(I3
I3
tg14
I00
(lp1671
F1
aF0
aF0
aF0
aF1
aF0
aF0
aF0
aF1
atba(lp1672
g10
(g11
(I0
tS'b'
tRp1673
((I1
(I3
tg14
I00
(lp1674
g104
ag72
ag252
at(NttbatbbsS'THRAr'
p1675
g3
(g4
g5
NtRp1676
g3
(g7
g5
NtRp1677
((lp1678
g10
(g11
(I0
tS'b'
tRp1679
((I1
(I7
tg14
I00
(lp1680
g68
ag104
ag282
ag103
ag170
ag862
ag863
at(Nttbag10
(g11
(I0
tS'b'
tRp1681
((I1
(I7
tg14
I00
(lp1682
g68
ag104
ag282
ag103
ag170
ag862
ag863
at(Nttba(lp1683
g10
(g22
(I0
tS'b'
tRp1684
(I1
(I7
I7
tg14
I00
(lp1685
F1
aF0
aF0
aF0
aF0
aF0
aF0
aF0
aF1
aF0
aF0
aF0
aF0
aF0
aF0
aF0
aF1
aF0.036764699999999997
aF0.635714
aF0.859155
aF0.80000000000000004
aF0
aF0
aF0.036764699999999997
aF1
aF0.030303
aF0.045801500000000002
aF0.0245902
aF0
aF0
aF0.635714
aF0.030303
aF1
aF0.65441199999999999
aF0.71774199999999999
aF0
aF0
aF0.859155
aF0.045801500000000002
aF0.65441199999999999
aF1
aF0.90769200000000005
aF0
aF0
aF0.80000000000000004
aF0.0245902
aF0.71774199999999999
aF0.90769200000000005
aF1
atba(lp1686
g10
(g11
(I0
tS'b'
tRp1687
((I1
(I7
tg14
I00
(lp1688
g68
ag104
ag282
ag103
ag170
ag862
ag863
at(NttbatbbsS'CYSTRS'
p1689
g3
(g4
g5
NtRp1690
g3
(g7
g5
NtRp1691
((lp1692
g10
(g11
(I0
tS'b'
tRp1693
((I1
(I1
tg14
I00
(lp1694
g103
at(Nttbag10
(g11
(I0
tS'b'
tRp1695
((I1
(I1
tg14
I00
(lp1696
g103
at(Nttba(lp1697
g10
(g22
(I0
tS'b'
tRp1698
(I1
(I1
I1
tg14
I00
(lp1699
F1
atba(lp1700
g10
(g11
(I0
tS'b'
tRp1701
((I1
(I1
tg14
I00
(lp1702
g103
at(NttbatbbsS'UAAGLS2'
p1703
g3
(g4
g5
NtRp1704
g3
(g7
g5
NtRp1705
((lp1706
g10
(g11
(I0
tS'b'
tRp1707
((I1
(I2
tg14
I00
(lp1708
g52
ag72
at(Nttbag10
(g11
(I0
tS'b'
tRp1709
((I1
(I2
tg14
I00
(lp1710
g52
ag72
at(Nttba(lp1711
g10
(g22
(I0
tS'b'
tRp1712
(I1
(I2
I2
tg14
I00
(lp1713
F1
aF0
aF0
aF1
atba(lp1714
g10
(g11
(I0
tS'b'
tRp1715
((I1
(I2
tg14
I00
(lp1716
g52
ag72
at(NttbatbbsS'PPA_1'
p1717
g3
(g4
g5
NtRp1718
g3
(g7
g5
NtRp1719
((lp1720
g10
(g11
(I0
tS'b'
tRp1721
((I1
(I4
tg14
I00
(lp1722
g68
ag72
aS'K'
ag125
at(Nttbag10
(g11
(I0
tS'b'
tRp1723
((I1
(I4
tg14
I00
(lp1724
g68
ag72
aS'K'
ag125
at(Nttba(lp1725
g10
(g22
(I0
tS'b'
tRp1726
(I1
(I4
I4
tg14
I00
(lp1727
F1
aF0
aF0
aF0
aF0
aF1
aF0
aF0
aF0
aF0
aF1
aF0
aF0
aF0
aF0
aF1
atba(lp1728
g10
(g11
(I0
tS'b'
tRp1729
((I1
(I4
tg14
I00
(lp1730
g68
ag72
aS'K'
ag125
at(NttbatbbsS'GLUTRS'
p1731
g3
(g4
g5
NtRp1732
g3
(g7
g5
NtRp1733
((lp1734
g10
(g11
(I0
tS'b'
tRp1735
((I1
(I4
tg14
I00
(lp1736
g104
ag103
ag36
ag37
at(Nttbag10
(g11
(I0
tS'b'
tRp1737
((I1
(I4
tg14
I00
(lp1738
g104
ag103
ag36
ag37
at(Nttba(lp1739
g10
(g22
(I0
tS'b'
tRp1740
(I1
(I4
I4
tg14
I00
(lp1741
F1
aF0
aF0
aF0
aF0
aF1
aF0.040697700000000003
aF0
aF0
aF0.040697700000000003
aF1
aF0
aF0
aF0
aF0
aF1
atba(lp1742
g10
(g11
(I0
tS'b'
tRp1743
((I1
(I4
tg14
I00
(lp1744
g104
ag103
ag36
ag37
at(NttbatbbsS'MI1PP'
p1745
g3
(g4
g5
NtRp1746
g3
(g7
g5
NtRp1747
((lp1748
g10
(g11
(I0
tS'b'
tRp1749
((I1
(I2
tg14
I00
(lp1750
g72
aS'SRT'
p1751
at(Nttbag10
(g11
(I0
tS'b'
tRp1752
((I1
(I2
tg14
I00
(lp1753
g72
ag1751
at(Nttba(lp1754
g10
(g22
(I0
tS'b'
tRp1755
(I1
(I2
I2
tg14
I00
(lp1756
F1
aF0
aF0
aF1
atba(lp1757
g10
(g11
(I0
tS'b'
tRp1758
((I1
(I2
tg14
I00
(lp1759
g72
ag1751
at(NttbatbbsS'RIBabc'
p1760
g3
(g4
g5
NtRp1761
g3
(g7
g5
NtRp1762
((lp1763
g10
(g11
(I0
tS'b'
tRp1764
((I1
(I1
tg14
I00
(lp1765
S'RIP'
p1766
at(Nttbag10
(g11
(I0
tS'b'
tRp1767
((I1
(I1
tg14
I00
(lp1768
g1766
at(Nttba(lp1769
g10
(g22
(I0
tS'b'
tRp1770
(I1
(I1
I1
tg14
I00
(lp1771
F1
atba(lp1772
g10
(g11
(I0
tS'b'
tRp1773
((I1
(I1
tg14
I00
(lp1774
g1766
at(NttbatbbsS'MGt5'
p1775
g3
(g4
g5
NtRp1776
g3
(g7
g5
NtRp1777
((lp1778
g10
(g11
(I0
tS'b'
tRp1779
((I1
(I8
tg14
I00
(lp1780
g68
ag104
aS'LMT'
p1781
ag72
ag1211
aS'PG0'
p1782
aS'CS'
p1783
aS'DMU'
p1784
at(Nttbag10
(g11
(I0
tS'b'
tRp1785
((I1
(I8
tg14
I00
(lp1786
g68
ag104
ag1781
ag72
ag1211
ag1782
ag1783
ag1784
at(Nttba(lp1787
g10
(g22
(I0
tS'b'
tRp1788
(I1
(I8
I8
tg14
I00
(lp1789
F1
aF0
aF0
aF0
aF0
aF0
aF0
aF0
aF0
aF1
aF0
aF0
aF0
aF0
aF0
aF0
aF0
aF0
aF1
aF0
aF0.20833299999999999
aF0.25
aF0.020833299999999999
aF1
aF0
aF0
aF0
aF1
aF0
aF0
aF0
aF0
aF0
aF0
aF0.20833299999999999
aF0
aF1
aF0.83333299999999999
aF0
aF0.20833299999999999
aF0
aF0
aF0.25
aF0
aF0.83333299999999999
aF1
aF0
aF0.25
aF0
aF0
aF0.020833299999999999
aF0
aF0
aF0
aF1
aF0.020833299999999999
aF0
aF0
aF1
aF0
aF0.20833299999999999
aF0.25
aF0.020833299999999999
aF1
atba(lp1790
g10
(g11
(I0
tS'b'
tRp1791
((I1
(I8
tg14
I00
(lp1792
g68
ag104
ag1781
ag72
ag1211
ag1782
ag1783
ag1784
at(NttbatbbsS'DHDPS'
p1793
g3
(g4
g5
NtRp1794
g3
(g7
g5
NtRp1795
((lp1796
g10
(g11
(I0
tS'b'
tRp1797
((I1
(I4
tg14
I00
(lp1798
g68
aS'MCL'
p1799
ag103
ag53
at(Nttbag10
(g11
(I0
tS'b'
tRp1800
((I1
(I4
tg14
I00
(lp1801
g68
ag1799
ag103
ag53
at(Nttba(lp1802
g10
(g22
(I0
tS'b'
tRp1803
(I1
(I4
I4
tg14
I00
(lp1804
F1
aF0
aF0
aF0
aF0
aF1
aF0.11627899999999999
aF0
aF0
aF0.11627899999999999
aF1
aF0
aF0
aF0
aF0
aF1
atba(lp1805
g10
(g11
(I0
tS'b'
tRp1806
((I1
(I4
tg14
I00
(lp1807
g68
ag1799
ag103
ag53
at(NttbatbbsS'PULLe'
p1808
g3
(g4
g5
NtRp1809
g3
(g7
g5
NtRp1810
((lp1811
g10
(g11
(I0
tS'b'
tRp1812
((I1
(I1
tg14
I00
(lp1813
g217
at(Nttbag10
(g11
(I0
tS'b'
tRp1814
((I1
(I1
tg14
I00
(lp1815
g217
at(Nttba(lp1816
g10
(g22
(I0
tS'b'
tRp1817
(I1
(I1
I1
tg14
I00
(lp1818
F1
atba(lp1819
g10
(g11
(I0
tS'b'
tRp1820
((I1
(I1
tg14
I00
(lp1821
g217
at(NttbatbbsS'MTRIi'
p1822
g3
(g4
g5
NtRp1823
g3
(g7
g5
NtRp1824
((lp1825
g10
(g11
(I0
tS'b'
tRp1826
((I1
(I2
tg14
I00
(lp1827
g104
ag53
at(Nttbag10
(g11
(I0
tS'b'
tRp1828
((I1
(I2
tg14
I00
(lp1829
g104
ag53
at(Nttba(lp1830
g10
(g22
(I0
tS'b'
tRp1831
(I1
(I2
I2
tg14
I00
(lp1832
F1
aF0
aF0
aF1
atba(lp1833
g10
(g11
(I0
tS'b'
tRp1834
((I1
(I2
tg14
I00
(lp1835
g104
ag53
at(NttbatbbsS'CS'
p1836
g3
(g4
g5
NtRp1837
g3
(g7
g5
NtRp1838
((lp1839
g10
(g11
(I0
tS'b'
tRp1840
((I1
(I1
tg14
I00
(lp1841
S'FLC'
p1842
at(Nttbag10
(g11
(I0
tS'b'
tRp1843
((I1
(I1
tg14
I00
(lp1844
g1842
at(Nttba(lp1845
g10
(g22
(I0
tS'b'
tRp1846
(I1
(I1
I1
tg14
I00
(lp1847
F1
atba(lp1848
g10
(g11
(I0
tS'b'
tRp1849
((I1
(I1
tg14
I00
(lp1850
g1842
at(NttbatbbsS'XYLe'
p1851
g3
(g4
g5
NtRp1852
g3
(g7
g5
NtRp1853
((lp1854
g10
(g11
(I0
tS'b'
tRp1855
((I1
(I7
tg14
I00
(lp1856
g845
ag103
ag53
ag846
ag847
ag215
ag68
at(Nttbag10
(g11
(I0
tS'b'
tRp1857
((I1
(I7
tg14
I00
(lp1858
g845
ag103
ag53
ag846
ag847
ag215
ag68
at(Nttba(lp1859
g10
(g22
(I0
tS'b'
tRp1860
(I1
(I7
I7
tg14
I00
(lp1861
F1
aF0.29999999999999999
aF0
aF0.081081100000000003
aF0.081081100000000003
aF0.074999999999999997
aF0
aF0.29999999999999999
aF1
aF0
aF0.20588200000000001
aF0.20588200000000001
aF0.189189
aF0
aF0
aF0
aF1
aF0
aF0
aF0
aF0
aF0.081081100000000003
aF0.20588200000000001
aF0
aF1
aF1
aF0.91891900000000004
aF0
aF0.081081100000000003
aF0.20588200000000001
aF0
aF1
aF1
aF0.91891900000000004
aF0
aF0.074999999999999997
aF0.189189
aF0
aF0.91891900000000004
aF0.91891900000000004
aF1
aF0
aF0
aF0
aF0
aF0
aF0
aF0
aF1
atba(lp1862
g10
(g11
(I0
tS'b'
tRp1863
((I1
(I7
tg14
I00
(lp1864
g845
ag103
ag53
ag846
ag847
ag215
ag68
at(NttbatbbsS'ADAPAT'
p1865
g3
(g4
g5
NtRp1866
g3
(g7
g5
NtRp1867
((lp1868
g10
(g11
(I0
tS'b'
tRp1869
((I1
(I3
tg14
I00
(lp1870
g141
ag170
ag103
at(Nttbag10
(g11
(I0
tS'b'
tRp1871
((I1
(I3
tg14
I00
(lp1872
g141
ag170
ag103
at(Nttba(lp1873
g10
(g22
(I0
tS'b'
tRp1874
(I1
(I3
I3
tg14
I00
(lp1875
F1
aF0.03125
aF0.57142899999999996
aF0.03125
aF1
aF0.030303
aF0.57142899999999996
aF0.030303
aF1
atba(lp1876
g10
(g11
(I0
tS'b'
tRp1877
((I1
(I3
tg14
I00
(lp1878
g141
ag170
ag103
at(NttbatbbsS'TMDK1'
p1879
g3
(g4
g5
NtRp1880
g3
(g7
g5
NtRp1881
((lp1882
g10
(g11
(I0
tS'b'
tRp1883
((I1
(I8
tg14
I00
(lp1884
S'4TA'
p1885
ag72
ag37
ag52
ag476
aS'THM'
p1886
aS'TMP'
p1887
ag53
at(Nttbag10
(g11
(I0
tS'b'
tRp1888
((I1
(I8
tg14
I00
(lp1889
g1885
ag72
ag37
ag52
ag476
ag1886
ag1887
ag53
at(Nttba(lp1890
g10
(g22
(I0
tS'b'
tRp1891
(I1
(I8
I8
tg14
I00
(lp1892
F1
aF0
aF0.0053763400000000003
aF0.80107499999999998
aF0.71634600000000004
aF0.56989199999999995
aF0.71505399999999997
aF0.0052356
aF0
aF1
aF0
aF0
aF0
aF0
aF0
aF0
aF0.0053763400000000003
aF0
aF1
aF0.0067114100000000001
aF0.0058479500000000002
aF0
aF0
aF0
aF0.80107499999999998
aF0
aF0.0067114100000000001
aF1
aF0.87134500000000004
aF0.43258400000000002
aF0.58426999999999996
aF0.0064935100000000001
aF0.71634600000000004
aF0
aF0.0058479500000000002
aF0.87134500000000004
aF1
aF0.38500000000000001
aF0.52000000000000002
aF0.0056818199999999998
aF0.56989199999999995
aF0
aF0
aF0.43258400000000002
aF0.38500000000000001
aF1
aF0.79699200000000003
aF0
aF0.71505399999999997
aF0
aF0
aF0.58426999999999996
aF0.52000000000000002
aF0.79699200000000003
aF1
aF0
aF0.0052356
aF0
aF0
aF0.0064935100000000001
aF0.0056818199999999998
aF0
aF0
aF1
atba(lp1893
g10
(g11
(I0
tS'b'
tRp1894
((I1
(I8
tg14
I00
(lp1895
g1885
ag72
ag37
ag52
ag476
ag1886
ag1887
ag53
at(NttbatbbsS'EHGLAT'
p1896
g3
(g4
g5
NtRp1897
g3
(g7
g5
NtRp1898
((lp1899
g10
(g11
(I0
tS'b'
tRp1900
((I1
(I3
tg14
I00
(lp1901
g282
ag170
ag53
at(Nttbag10
(g11
(I0
tS'b'
tRp1902
((I1
(I3
tg14
I00
(lp1903
g282
ag170
ag53
at(Nttba(lp1904
g10
(g22
(I0
tS'b'
tRp1905
(I1
(I3
I3
tg14
I00
(lp1906
F1
aF0.635714
aF0.0071942400000000002
aF0.635714
aF1
aF0.01
aF0.0071942400000000002
aF0.01
aF1
atba(lp1907
g10
(g11
(I0
tS'b'
tRp1908
((I1
(I3
tg14
I00
(lp1909
g282
ag170
ag53
at(NttbatbbsS'FBP'
p1910
g3
(g4
g5
NtRp1911
g3
(g7
g5
NtRp1912
((lp1913
g10
(g11
(I0
tS'b'
tRp1914
((I1
(I2
tg14
I00
(lp1915
g72
ag1751
at(Nttbag10
(g11
(I0
tS'b'
tRp1916
((I1
(I2
tg14
I00
(lp1917
g72
ag1751
at(Nttba(lp1918
g10
(g22
(I0
tS'b'
tRp1919
(I1
(I2
I2
tg14
I00
(lp1920
F1
aF0
aF0
aF1
atba(lp1921
g10
(g11
(I0
tS'b'
tRp1922
((I1
(I2
tg14
I00
(lp1923
g72
ag1751
at(NttbatbbsS'RAFH'
p1924
g3
(g4
g5
NtRp1925
g3
(g7
g5
NtRp1926
((lp1927
g10
(g11
(I0
tS'b'
tRp1928
((I1
(I5
tg14
I00
(lp1929
g185
ag829
ag53
ag830
ag103
at(Nttbag10
(g11
(I0
tS'b'
tRp1930
((I1
(I5
tg14
I00
(lp1931
g185
ag829
ag53
ag830
ag103
at(Nttba(lp1932
g10
(g22
(I0
tS'b'
tRp1933
(I1
(I5
I5
tg14
I00
(lp1934
F1
aF0.26530599999999999
aF0
aF0.213115
aF0.28000000000000003
aF0.26530599999999999
aF1
aF0
aF0.75510200000000005
aF0.189189
aF0
aF0
aF1
aF0
aF0
aF0.213115
aF0.75510200000000005
aF0
aF1
aF0.14285700000000001
aF0.28000000000000003
aF0.189189
aF0
aF0.14285700000000001
aF1
atba(lp1935
g10
(g11
(I0
tS'b'
tRp1936
((I1
(I5
tg14
I00
(lp1937
g185
ag829
ag53
ag830
ag103
at(NttbatbbsS'PUNP4'
p1938
g3
(g4
g5
NtRp1939
g3
(g7
g5
NtRp1940
((lp1941
g10
(g11
(I0
tS'b'
tRp1942
((I1
(I2
tg14
I00
(lp1943
g1624
ag72
at(Nttbag10
(g11
(I0
tS'b'
tRp1944
((I1
(I2
tg14
I00
(lp1945
g1624
ag72
at(Nttba(lp1946
g10
(g22
(I0
tS'b'
tRp1947
(I1
(I2
I2
tg14
I00
(lp1948
F1
aF0
aF0
aF1
atba(lp1949
g10
(g11
(I0
tS'b'
tRp1950
((I1
(I2
tg14
I00
(lp1951
g1624
ag72
at(NttbatbbsS'PUNP5'
p1952
g3
(g4
g5
NtRp1953
g3
(g7
g5
NtRp1954
((lp1955
g10
(g11
(I0
tS'b'
tRp1956
((I1
(I2
tg14
I00
(lp1957
g1624
ag72
at(Nttbag10
(g11
(I0
tS'b'
tRp1958
((I1
(I2
tg14
I00
(lp1959
g1624
ag72
at(Nttba(lp1960
g10
(g22
(I0
tS'b'
tRp1961
(I1
(I2
I2
tg14
I00
(lp1962
F1
aF0
aF0
aF1
atba(lp1963
g10
(g11
(I0
tS'b'
tRp1964
((I1
(I2
tg14
I00
(lp1965
g1624
ag72
at(NttbatbbsS'EDA_R'
p1966
g3
(g4
g5
NtRp1967
g3
(g7
g5
NtRp1968
((lp1969
g10
(g11
(I0
tS'b'
tRp1970
((I1
(I2
tg14
I00
(lp1971
g609
ag53
at(Nttbag10
(g11
(I0
tS'b'
tRp1972
((I1
(I2
tg14
I00
(lp1973
g609
ag53
at(Nttba(lp1974
g10
(g22
(I0
tS'b'
tRp1975
(I1
(I2
I2
tg14
I00
(lp1976
F1
aF0
aF0
aF1
atba(lp1977
g10
(g11
(I0
tS'b'
tRp1978
((I1
(I2
tg14
I00
(lp1979
g609
ag53
at(NttbatbbsS'PUNP1'
p1980
g3
(g4
g5
NtRp1981
g3
(g7
g5
NtRp1982
((lp1983
g10
(g11
(I0
tS'b'
tRp1984
((I1
(I2
tg14
I00
(lp1985
g1624
ag72
at(Nttbag10
(g11
(I0
tS'b'
tRp1986
((I1
(I2
tg14
I00
(lp1987
g1624
ag72
at(Nttba(lp1988
g10
(g22
(I0
tS'b'
tRp1989
(I1
(I2
I2
tg14
I00
(lp1990
F1
aF0
aF0
aF1
atba(lp1991
g10
(g11
(I0
tS'b'
tRp1992
((I1
(I2
tg14
I00
(lp1993
g1624
ag72
at(NttbatbbsS'PUNP2'
p1994
g3
(g4
g5
NtRp1995
g3
(g7
g5
NtRp1996
((lp1997
g10
(g11
(I0
tS'b'
tRp1998
((I1
(I2
tg14
I00
(lp1999
g1624
ag72
at(Nttbag10
(g11
(I0
tS'b'
tRp2000
((I1
(I2
tg14
I00
(lp2001
g1624
ag72
at(Nttba(lp2002
g10
(g22
(I0
tS'b'
tRp2003
(I1
(I2
I2
tg14
I00
(lp2004
F1
aF0
aF0
aF1
atba(lp2005
g10
(g11
(I0
tS'b'
tRp2006
((I1
(I2
tg14
I00
(lp2007
g1624
ag72
at(NttbatbbsS'PUNP3'
p2008
g3
(g4
g5
NtRp2009
g3
(g7
g5
NtRp2010
((lp2011
g10
(g11
(I0
tS'b'
tRp2012
((I1
(I2
tg14
I00
(lp2013
g1624
ag72
at(Nttbag10
(g11
(I0
tS'b'
tRp2014
((I1
(I2
tg14
I00
(lp2015
g1624
ag72
at(Nttba(lp2016
g10
(g22
(I0
tS'b'
tRp2017
(I1
(I2
I2
tg14
I00
(lp2018
F1
aF0
aF0
aF1
atba(lp2019
g10
(g11
(I0
tS'b'
tRp2020
((I1
(I2
tg14
I00
(lp2021
g1624
ag72
at(NttbatbbsS'MEPCT'
p2022
g3
(g4
g5
NtRp2023
g3
(g7
g5
NtRp2024
((lp2025
g10
(g11
(I0
tS'b'
tRp2026
((I1
(I3
tg14
I00
(lp2027
g845
aS'CTP'
p2028
ag72
at(Nttbag10
(g11
(I0
tS'b'
tRp2029
((I1
(I3
tg14
I00
(lp2030
g845
ag2028
ag72
at(Nttba(lp2031
g10
(g22
(I0
tS'b'
tRp2032
(I1
(I3
I3
tg14
I00
(lp2033
F1
aF0.032051299999999998
aF0
aF0.032051299999999998
aF1
aF0
aF0
aF0
aF1
atba(lp2034
g10
(g11
(I0
tS'b'
tRp2035
((I1
(I3
tg14
I00
(lp2036
g845
ag2028
ag72
at(NttbatbbsS'GALabc'
p2037
g3
(g4
g5
NtRp2038
g3
(g7
g5
NtRp2039
((lp2040
g10
(g11
(I0
tS'b'
tRp2041
((I1
(I1
tg14
I00
(lp2042
g358
at(Nttbag10
(g11
(I0
tS'b'
tRp2043
((I1
(I1
tg14
I00
(lp2044
g358
at(Nttba(lp2045
g10
(g22
(I0
tS'b'
tRp2046
(I1
(I1
I1
tg14
I00
(lp2047
F1
atba(lp2048
g10
(g11
(I0
tS'b'
tRp2049
((I1
(I1
tg14
I00
(lp2050
g358
at(NttbatbbsS'OMPDC'
p2051
g3
(g4
g5
NtRp2052
g3
(g7
g5
NtRp2053
((lp2054
g10
(g11
(I0
tS'b'
tRp2055
((I1
(I1
tg14
I00
(lp2056
g141
at(Nttbag10
(g11
(I0
tS'b'
tRp2057
((I1
(I1
tg14
I00
(lp2058
g141
at(Nttba(lp2059
g10
(g22
(I0
tS'b'
tRp2060
(I1
(I1
I1
tg14
I00
(lp2061
F1
atba(lp2062
g10
(g11
(I0
tS'b'
tRp2063
((I1
(I1
tg14
I00
(lp2064
g141
at(NttbatbbsS'PLPS'
p2065
g3
(g4
g5
NtRp2066
g3
(g7
g5
NtRp2067
((lp2068
g10
(g11
(I0
tS'b'
tRp2069
((I1
(I2
tg14
I00
(lp2070
S'5RP'
p2071
ag125
at(Nttbag10
(g11
(I0
tS'b'
tRp2072
((I1
(I2
tg14
I00
(lp2073
g2071
ag125
at(Nttba(lp2074
g10
(g22
(I0
tS'b'
tRp2075
(I1
(I2
I2
tg14
I00
(lp2076
F1
aF0.111111
aF0.111111
aF1
atba(lp2077
g10
(g11
(I0
tS'b'
tRp2078
((I1
(I2
tg14
I00
(lp2079
g2071
ag125
at(NttbatbbsS'GLS2'
p2080
g3
(g4
g5
NtRp2081
g3
(g7
g5
NtRp2082
((lp2083
g10
(g11
(I0
tS'b'
tRp2084
((I1
(I8
tg14
I00
(lp2085
g979
ag68
ag215
ag103
ag104
ag53
ag980
ag785
at(Nttbag10
(g11
(I0
tS'b'
tRp2086
((I1
(I8
tg14
I00
(lp2087
g979
ag68
ag215
ag103
ag104
ag53
ag980
ag785
at(Nttba(lp2088
g10
(g22
(I0
tS'b'
tRp2089
(I1
(I8
I8
tg14
I00
(lp2090
F1
aF0
aF0.10204100000000001
aF0.090909100000000007
aF0
aF0
aF0.084745799999999996
aF0
aF0
aF1
aF0
aF0
aF0
aF0
aF0
aF0
aF0.10204100000000001
aF0
aF1
aF0.189189
aF0
aF0
aF0.55555600000000005
aF0
aF0.090909100000000007
aF0
aF0.189189
aF1
aF0
aF0
aF0.14893600000000001
aF0
aF0
aF0
aF0
aF0
aF1
aF0
aF0
aF0
aF0
aF0
aF0
aF0
aF0
aF1
aF0
aF0
aF0.084745799999999996
aF0
aF0.55555600000000005
aF0.14893600000000001
aF0
aF0
aF1
aF0
aF0
aF0
aF0
aF0
aF0
aF0
aF0
aF1
atba(lp2091
g10
(g11
(I0
tS'b'
tRp2092
((I1
(I8
tg14
I00
(lp2093
g979
ag68
ag215
ag103
ag104
ag53
ag980
ag785
at(NttbatbbsS'FASC240ACP'
p2094
g3
(g4
g5
NtRp2095
g3
(g7
g5
NtRp2096
((lp2097
g10
(g11
(I0
tS'b'
tRp2098
((I1
(I5
tg14
I00
(lp2099
g578
ag141
ag125
ag53
ag252
at(Nttbag10
(g11
(I0
tS'b'
tRp2100
((I1
(I5
tg14
I00
(lp2101
g578
ag141
ag125
ag53
ag252
at(Nttba(lp2102
g10
(g22
(I0
tS'b'
tRp2103
(I1
(I5
I5
tg14
I00
(lp2104
F1
aF0.33333299999999999
aF0
aF0
aF0.054054100000000001
aF0.33333299999999999
aF1
aF0
aF0
aF0.0218579
aF0
aF0
aF1
aF0
aF0.0273224
aF0
aF0
aF0
aF1
aF0.0053191499999999999
aF0.054054100000000001
aF0.0218579
aF0.0273224
aF0.0053191499999999999
aF1
atba(lp2105
g10
(g11
(I0
tS'b'
tRp2106
((I1
(I5
tg14
I00
(lp2107
g578
ag141
ag125
ag53
ag252
at(NttbatbbsS'PRAGS'
p2108
g3
(g4
g5
NtRp2109
g3
(g7
g5
NtRp2110
((lp2111
g10
(g11
(I0
tS'b'
tRp2112
((I1
(I1
tg14
I00
(lp2113
g141
at(Nttbag10
(g11
(I0
tS'b'
tRp2114
((I1
(I1
tg14
I00
(lp2115
g141
at(Nttba(lp2116
g10
(g22
(I0
tS'b'
tRp2117
(I1
(I1
I1
tg14
I00
(lp2118
F1
atba(lp2119
g10
(g11
(I0
tS'b'
tRp2120
((I1
(I1
tg14
I00
(lp2121
g141
at(NttbatbbsS'FPGS_tm'
p2122
g3
(g4
g5
NtRp2123
g3
(g7
g5
NtRp2124
((lp2125
g10
(g11
(I0
tS'b'
tRp2126
((I1
(I2
tg14
I00
(lp2127
g104
ag53
at(Nttbag10
(g11
(I0
tS'b'
tRp2128
((I1
(I2
tg14
I00
(lp2129
g104
ag53
at(Nttba(lp2130
g10
(g22
(I0
tS'b'
tRp2131
(I1
(I2
I2
tg14
I00
(lp2132
F1
aF0
aF0
aF1
atba(lp2133
g10
(g11
(I0
tS'b'
tRp2134
((I1
(I2
tg14
I00
(lp2135
g104
ag53
at(NttbatbbsS'PHETA1'
p2136
g3
(g4
g5
NtRp2137
g3
(g7
g5
NtRp2138
((lp2139
g10
(g11
(I0
tS'b'
tRp2140
((I1
(I7
tg14
I00
(lp2141
g141
ag963
ag964
ag170
ag125
ag282
ag53
at(Nttbag10
(g11
(I0
tS'b'
tRp2142
((I1
(I7
tg14
I00
(lp2143
g141
ag963
ag964
ag170
ag125
ag282
ag53
at(Nttba(lp2144
g10
(g22
(I0
tS'b'
tRp2145
(I1
(I7
I7
tg14
I00
(lp2146
F1
aF0.03125
aF0.0405405
aF0.03125
aF0
aF0.022222200000000001
aF0
aF0.03125
aF1
aF0.22627700000000001
aF0.84465999999999997
aF0.052631600000000001
aF0.708955
aF0.01
aF0.0405405
aF0.22627700000000001
aF1
aF0.20863300000000001
aF0.068493200000000004
aF0.224852
aF0
aF0.03125
aF0.84465999999999997
aF0.20863300000000001
aF1
aF0.052631600000000001
aF0.635714
aF0.01
aF0
aF0.052631600000000001
aF0.068493200000000004
aF0.052631600000000001
aF1
aF0.037313399999999997
aF0
aF0.022222200000000001
aF0.708955
aF0.224852
aF0.635714
aF0.037313399999999997
aF1
aF0.0071942400000000002
aF0
aF0.01
aF0
aF0.01
aF0
aF0.0071942400000000002
aF1
atba(lp2147
g10
(g11
(I0
tS'b'
tRp2148
((I1
(I7
tg14
I00
(lp2149
g141
ag963
ag964
ag170
ag125
ag282
ag53
at(NttbatbbsS'XYLabc'
p2150
g3
(g4
g5
NtRp2151
g3
(g7
g5
NtRp2152
((lp2153
g10
(g11
(I0
tS'b'
tRp2154
((I1
(I2
tg14
I00
(lp2155
g215
ag846
at(Nttbag10
(g11
(I0
tS'b'
tRp2156
((I1
(I2
tg14
I00
(lp2157
g215
ag846
at(Nttba(lp2158
g10
(g22
(I0
tS'b'
tRp2159
(I1
(I2
I2
tg14
I00
(lp2160
F1
aF0.91891900000000004
aF0.91891900000000004
aF1
atba(lp2161
g10
(g11
(I0
tS'b'
tRp2162
((I1
(I2
tg14
I00
(lp2163
g215
ag846
at(NttbatbbsS'ASNTRAT'
p2164
g3
(g4
g5
NtRp2165
g3
(g7
g5
NtRp2166
((lp2167
g10
(g11
(I0
tS'b'
tRp2168
((I1
(I4
tg14
I00
(lp2169
g34
ag35
ag36
ag37
at(Nttbag10
(g11
(I0
tS'b'
tRp2170
((I1
(I4
tg14
I00
(lp2171
g34
ag35
ag36
ag37
at(Nttba(lp2172
g10
(g22
(I0
tS'b'
tRp2173
(I1
(I4
I4
tg14
I00
(lp2174
F1
aF0.25
aF0.034883699999999997
aF0
aF0.25
aF1
aF0.0523256
aF0
aF0.034883699999999997
aF0.0523256
aF1
aF0
aF0
aF0
aF0
aF1
atba(lp2175
g10
(g11
(I0
tS'b'
tRp2176
((I1
(I4
tg14
I00
(lp2177
g34
ag35
ag36
ag37
at(NttbatbbsS'DHFS'
p2178
g3
(g4
g5
NtRp2179
g3
(g7
g5
NtRp2180
((lp2181
g10
(g11
(I0
tS'b'
tRp2182
((I1
(I2
tg14
I00
(lp2183
g104
ag53
at(Nttbag10
(g11
(I0
tS'b'
tRp2184
((I1
(I2
tg14
I00
(lp2185
g104
ag53
at(Nttba(lp2186
g10
(g22
(I0
tS'b'
tRp2187
(I1
(I2
I2
tg14
I00
(lp2188
F1
aF0
aF0
aF1
atba(lp2189
g10
(g11
(I0
tS'b'
tRp2190
((I1
(I2
tg14
I00
(lp2191
g104
ag53
at(NttbatbbsS'CYSTAi'
p2192
g3
(g4
g5
NtRp2193
g3
(g7
g5
NtRp2194
((lp2195
g10
(g11
(I0
tS'b'
tRp2196
((I1
(I3
tg14
I00
(lp2197
g282
ag170
ag53
at(Nttbag10
(g11
(I0
tS'b'
tRp2198
((I1
(I3
tg14
I00
(lp2199
g282
ag170
ag53
at(Nttba(lp2200
g10
(g22
(I0
tS'b'
tRp2201
(I1
(I3
I3
tg14
I00
(lp2202
F1
aF0.635714
aF0.0071942400000000002
aF0.635714
aF1
aF0.01
aF0.0071942400000000002
aF0.01
aF1
atba(lp2203
g10
(g11
(I0
tS'b'
tRp2204
((I1
(I3
tg14
I00
(lp2205
g282
ag170
ag53
at(NttbatbbsS'IMPCT'
p2206
g3
(g4
g5
NtRp2207
g3
(g7
g5
NtRp2208
((lp2209
g10
(g11
(I0
tS'b'
tRp2210
((I1
(I4
tg14
I00
(lp2211
g1312
ag104
ag103
ag125
at(Nttbag10
(g11
(I0
tS'b'
tRp2212
((I1
(I4
tg14
I00
(lp2213
g1312
ag104
ag103
ag125
at(Nttba(lp2214
g10
(g22
(I0
tS'b'
tRp2215
(I1
(I4
I4
tg14
I00
(lp2216
F1
aF0
aF0.16279099999999999
aF0
aF0
aF1
aF0
aF0
aF0.16279099999999999
aF0
aF1
aF0
aF0
aF0
aF0
aF1
atba(lp2217
g10
(g11
(I0
tS'b'
tRp2218
((I1
(I4
tg14
I00
(lp2219
g1312
ag104
ag103
ag125
at(NttbatbbsS'DURIK1'
p2220
g3
(g4
g5
NtRp2221
g3
(g7
g5
NtRp2222
((lp2223
g10
(g11
(I0
tS'b'
tRp2224
((I1
(I8
tg14
I00
(lp2225
g1885
ag72
ag37
ag52
ag476
ag1886
ag1887
ag53
at(Nttbag10
(g11
(I0
tS'b'
tRp2226
((I1
(I8
tg14
I00
(lp2227
g1885
ag72
ag37
ag52
ag476
ag1886
ag1887
ag53
at(Nttba(lp2228
g10
(g22
(I0
tS'b'
tRp2229
(I1
(I8
I8
tg14
I00
(lp2230
F1
aF0
aF0.0053763400000000003
aF0.80107499999999998
aF0.71634600000000004
aF0.56989199999999995
aF0.71505399999999997
aF0.0052356
aF0
aF1
aF0
aF0
aF0
aF0
aF0
aF0
aF0.0053763400000000003
aF0
aF1
aF0.0067114100000000001
aF0.0058479500000000002
aF0
aF0
aF0
aF0.80107499999999998
aF0
aF0.0067114100000000001
aF1
aF0.87134500000000004
aF0.43258400000000002
aF0.58426999999999996
aF0.0064935100000000001
aF0.71634600000000004
aF0
aF0.0058479500000000002
aF0.87134500000000004
aF1
aF0.38500000000000001
aF0.52000000000000002
aF0.0056818199999999998
aF0.56989199999999995
aF0
aF0
aF0.43258400000000002
aF0.38500000000000001
aF1
aF0.79699200000000003
aF0
aF0.71505399999999997
aF0
aF0
aF0.58426999999999996
aF0.52000000000000002
aF0.79699200000000003
aF1
aF0
aF0.0052356
aF0
aF0
aF0.0064935100000000001
aF0.0056818199999999998
aF0
aF0
aF1
atba(lp2231
g10
(g11
(I0
tS'b'
tRp2232
((I1
(I8
tg14
I00
(lp2233
g1885
ag72
ag37
ag52
ag476
ag1886
ag1887
ag53
at(NttbatbbsS'FTHFL'
p2234
g3
(g4
g5
NtRp2235
g3
(g7
g5
NtRp2236
((lp2237
g10
(g11
(I0
tS'b'
tRp2238
((I1
(I1
tg14
I00
(lp2239
g141
at(Nttbag10
(g11
(I0
tS'b'
tRp2240
((I1
(I1
tg14
I00
(lp2241
g141
at(Nttba(lp2242
g10
(g22
(I0
tS'b'
tRp2243
(I1
(I1
I1
tg14
I00
(lp2244
F1
atba(lp2245
g10
(g11
(I0
tS'b'
tRp2246
((I1
(I1
tg14
I00
(lp2247
g141
at(NttbatbbsS'VALTA'
p2248
g3
(g4
g5
NtRp2249
g3
(g7
g5
NtRp2250
((lp2251
g10
(g11
(I0
tS'b'
tRp2252
((I1
(I4
tg14
I00
(lp2253
g185
ag104
ag35
ag170
at(Nttbag10
(g11
(I0
tS'b'
tRp2254
((I1
(I4
tg14
I00
(lp2255
g185
ag104
ag35
ag170
at(Nttba(lp2256
g10
(g22
(I0
tS'b'
tRp2257
(I1
(I4
I4
tg14
I00
(lp2258
F1
aF0
aF0.35999999999999999
aF0.061946899999999999
aF0
aF1
aF0
aF0
aF0.35999999999999999
aF0
aF1
aF0.029703
aF0.061946899999999999
aF0
aF0.029703
aF1
atba(lp2259
g10
(g11
(I0
tS'b'
tRp2260
((I1
(I4
tg14
I00
(lp2261
g185
ag104
ag35
ag170
at(NttbatbbsS'RAFFabc'
p2262
g3
(g4
g5
NtRp2263
g3
(g7
g5
NtRp2264
((lp2265
g10
(g11
(I0
tS'b'
tRp2266
((I1
(I1
tg14
I00
(lp2267
g358
at(Nttbag10
(g11
(I0
tS'b'
tRp2268
((I1
(I1
tg14
I00
(lp2269
g358
at(Nttba(lp2270
g10
(g22
(I0
tS'b'
tRp2271
(I1
(I1
I1
tg14
I00
(lp2272
F1
atba(lp2273
g10
(g11
(I0
tS'b'
tRp2274
((I1
(I1
tg14
I00
(lp2275
g358
at(NttbatbbsS'GAPD'
p2276
g3
(g4
g5
NtRp2277
g3
(g7
g5
NtRp2278
((lp2279
g10
(g11
(I0
tS'b'
tRp2280
((I1
(I2
tg14
I00
(lp2281
g252
ag53
at(Nttbag10
(g11
(I0
tS'b'
tRp2282
((I1
(I2
tg14
I00
(lp2283
g252
ag53
at(Nttba(lp2284
g10
(g22
(I0
tS'b'
tRp2285
(I1
(I2
I2
tg14
I00
(lp2286
F1
aF0.0053191499999999999
aF0.0053191499999999999
aF1
atba(lp2287
g10
(g11
(I0
tS'b'
tRp2288
((I1
(I2
tg14
I00
(lp2289
g252
ag53
at(NttbatbbsS'VALabc'
p2290
g3
(g4
g5
NtRp2291
g3
(g7
g5
NtRp2292
((lp2293
g10
(g11
(I0
tS'b'
tRp2294
((I1
(I3
tg14
I00
(lp2295
g140
ag141
ag53
at(Nttbag10
(g11
(I0
tS'b'
tRp2296
((I1
(I3
tg14
I00
(lp2297
g140
ag141
ag53
at(Nttba(lp2298
g10
(g22
(I0
tS'b'
tRp2299
(I1
(I3
I3
tg14
I00
(lp2300
F1
aF0.025641000000000001
aF0.0062111800000000002
aF0.025641000000000001
aF1
aF0
aF0.0062111800000000002
aF0
aF1
atba(lp2301
g10
(g11
(I0
tS'b'
tRp2302
((I1
(I3
tg14
I00
(lp2303
g140
ag141
ag53
at(NttbatbbsS'UPPRT'
p2304
g3
(g4
g5
NtRp2305
g3
(g7
g5
NtRp2306
((lp2307
g10
(g11
(I0
tS'b'
tRp2308
((I1
(I2
tg14
I00
(lp2309
g53
aS'U5P'
p2310
at(Nttbag10
(g11
(I0
tS'b'
tRp2311
((I1
(I2
tg14
I00
(lp2312
g53
ag2310
at(Nttba(lp2313
g10
(g22
(I0
tS'b'
tRp2314
(I1
(I2
I2
tg14
I00
(lp2315
F1
aF0
aF0
aF1
atba(lp2316
g10
(g11
(I0
tS'b'
tRp2317
((I1
(I2
tg14
I00
(lp2318
g53
ag2310
at(NttbatbbsS'ALR2'
p2319
g3
(g4
g5
NtRp2320
g3
(g7
g5
NtRp2321
((lp2322
g10
(g11
(I0
tS'b'
tRp2323
((I1
(I3
tg14
I00
(lp2324
g106
ag104
ag103
at(Nttbag10
(g11
(I0
tS'b'
tRp2325
((I1
(I3
tg14
I00
(lp2326
g106
ag104
ag103
at(Nttba(lp2327
g10
(g22
(I0
tS'b'
tRp2328
(I1
(I3
I3
tg14
I00
(lp2329
F1
aF0
aF0
aF0
aF1
aF0
aF0
aF0
aF1
atba(lp2330
g10
(g11
(I0
tS'b'
tRp2331
((I1
(I3
tg14
I00
(lp2332
g106
ag104
ag103
at(NttbatbbsS'ADMDC'
p2333
g3
(g4
g5
NtRp2334
g3
(g7
g5
NtRp2335
((lp2336
g10
(g11
(I0
tS'b'
tRp2337
((I1
(I4
tg14
I00
(lp2338
g141
aS'M2T'
p2339
ag609
aS'SMM'
p2340
at(Nttbag10
(g11
(I0
tS'b'
tRp2341
((I1
(I4
tg14
I00
(lp2342
g141
ag2339
ag609
ag2340
at(Nttba(lp2343
g10
(g22
(I0
tS'b'
tRp2344
(I1
(I4
I4
tg14
I00
(lp2345
F1
aF0.0305344
aF0.25
aF0.026490099999999999
aF0.0305344
aF1
aF0.051851899999999999
aF0.86755000000000004
aF0.25
aF0.051851899999999999
aF1
aF0.065789500000000001
aF0.026490099999999999
aF0.86755000000000004
aF0.065789500000000001
aF1
atba(lp2346
g10
(g11
(I0
tS'b'
tRp2347
((I1
(I4
tg14
I00
(lp2348
g141
ag2339
ag609
ag2340
at(NttbatbbsS'PRMICIi'
p2349
g3
(g4
g5
NtRp2350
g3
(g7
g5
NtRp2351
((lp2352
g10
(g11
(I0
tS'b'
tRp2353
((I1
(I2
tg14
I00
(lp2354
g104
ag35
at(Nttbag10
(g11
(I0
tS'b'
tRp2355
((I1
(I2
tg14
I00
(lp2356
g104
ag35
at(Nttba(lp2357
g10
(g22
(I0
tS'b'
tRp2358
(I1
(I2
I2
tg14
I00
(lp2359
F1
aF0
aF0
aF1
atba(lp2360
g10
(g11
(I0
tS'b'
tRp2361
((I1
(I2
tg14
I00
(lp2362
g104
ag35
at(NttbatbbsS'FASC120ACP'
p2363
g3
(g4
g5
NtRp2364
g3
(g7
g5
NtRp2365
((lp2366
g10
(g11
(I0
tS'b'
tRp2367
((I1
(I5
tg14
I00
(lp2368
g578
ag141
ag125
ag53
ag252
at(Nttbag10
(g11
(I0
tS'b'
tRp2369
((I1
(I5
tg14
I00
(lp2370
g578
ag141
ag125
ag53
ag252
at(Nttba(lp2371
g10
(g22
(I0
tS'b'
tRp2372
(I1
(I5
I5
tg14
I00
(lp2373
F1
aF0.33333299999999999
aF0
aF0
aF0.054054100000000001
aF0.33333299999999999
aF1
aF0
aF0
aF0.0218579
aF0
aF0
aF1
aF0
aF0.0273224
aF0
aF0
aF0
aF1
aF0.0053191499999999999
aF0.054054100000000001
aF0.0218579
aF0.0273224
aF0.0053191499999999999
aF1
atba(lp2374
g10
(g11
(I0
tS'b'
tRp2375
((I1
(I5
tg14
I00
(lp2376
g578
ag141
ag125
ag53
ag252
at(NttbatbbsS'POR'
p2377
g3
(g4
g5
NtRp2378
g3
(g7
g5
NtRp2379
((lp2380
g10
(g11
(I0
tS'b'
tRp2381
((I1
(I1
tg14
I00
(lp2382
g53
at(Nttbag10
(g11
(I0
tS'b'
tRp2383
((I1
(I1
tg14
I00
(lp2384
g53
at(Nttba(lp2385
g10
(g22
(I0
tS'b'
tRp2386
(I1
(I1
I1
tg14
I00
(lp2387
F1
atba(lp2388
g10
(g11
(I0
tS'b'
tRp2389
((I1
(I1
tg14
I00
(lp2390
g53
at(NttbatbbsS'PGK'
p2391
g3
(g4
g5
NtRp2392
g3
(g7
g5
NtRp2393
((lp2394
g10
(g11
(I0
tS'b'
tRp2395
((I1
(I4
tg14
I00
(lp2396
g475
ag476
ag72
ag53
at(Nttbag10
(g11
(I0
tS'b'
tRp2397
((I1
(I4
tg14
I00
(lp2398
g475
ag476
ag72
ag53
at(Nttba(lp2399
g10
(g22
(I0
tS'b'
tRp2400
(I1
(I4
I4
tg14
I00
(lp2401
F1
aF0.157303
aF0
aF0
aF0.157303
aF1
aF0
aF0.0056818199999999998
aF0
aF0
aF1
aF0
aF0
aF0.0056818199999999998
aF0
aF1
atba(lp2402
g10
(g11
(I0
tS'b'
tRp2403
((I1
(I4
tg14
I00
(lp2404
g475
ag476
ag72
ag53
at(NttbatbbsS'PGI'
p2405
g3
(g4
g5
NtRp2406
g3
(g7
g5
NtRp2407
((lp2408
g10
(g11
(I0
tS'b'
tRp2409
((I1
(I3
tg14
I00
(lp2410
g578
ag104
ag53
at(Nttbag10
(g11
(I0
tS'b'
tRp2411
((I1
(I3
tg14
I00
(lp2412
g578
ag104
ag53
at(Nttba(lp2413
g10
(g22
(I0
tS'b'
tRp2414
(I1
(I3
I3
tg14
I00
(lp2415
F1
aF0
aF0
aF0
aF1
aF0
aF0
aF0
aF1
atba(lp2416
g10
(g11
(I0
tS'b'
tRp2417
((I1
(I3
tg14
I00
(lp2418
g578
ag104
ag53
at(NttbatbbsS'ATPS1'
p2419
g3
(g4
g5
NtRp2420
g3
(g7
g5
NtRp2421
((lp2422
g10
(g11
(I0
tS'b'
tRp2423
((I1
(I4
tg14
I00
(lp2424
g140
ag104
ag72
ag267
at(Nttbag10
(g11
(I0
tS'b'
tRp2425
((I1
(I4
tg14
I00
(lp2426
g140
ag104
ag72
ag267
at(Nttba(lp2427
g10
(g22
(I0
tS'b'
tRp2428
(I1
(I4
I4
tg14
I00
(lp2429
F1
aF0
aF0
aF0.063291100000000003
aF0
aF1
aF0
aF0
aF0
aF0
aF1
aF0
aF0.063291100000000003
aF0
aF0
aF1
atba(lp2430
g10
(g11
(I0
tS'b'
tRp2431
((I1
(I4
tg14
I00
(lp2432
g140
ag104
ag72
ag267
at(NttbatbbsS'NAti'
p2433
g3
(g4
g5
NtRp2434
g3
(g7
g5
NtRp2435
((lp2436
g10
(g11
(I0
tS'b'
tRp2437
((I1
(I2
tg14
I00
(lp2438
g340
aS'UNX'
p2439
at(Nttbag10
(g11
(I0
tS'b'
tRp2440
((I1
(I2
tg14
I00
(lp2441
g340
ag2439
at(Nttba(lp2442
g10
(g22
(I0
tS'b'
tRp2443
(I1
(I2
I2
tg14
I00
(lp2444
F1
aNaNaNatba(lp2445
g10
(g11
(I0
tS'b'
tRp2446
((I1
(I2
tg14
I00
(lp2447
g340
ag2439
at(NttbatbbsS'TMDS3'
p2448
g3
(g4
g5
NtRp2449
g3
(g7
g5
NtRp2450
((lp2451
g10
(g11
(I0
tS'b'
tRp2452
((I1
(I15
tg14
I00
(lp2453
g578
aS'FAD'
p2454
ag104
ag125
ag53
aS'BRU'
p2455
aS'D16'
p2456
aS'UMP'
p2457
ag16
aS'MEF'
p2458
ag1211
ag69
aS'PGE'
p2459
aS'UFP'
p2460
aS'FDA'
p2461
at(Nttbag10
(g11
(I0
tS'b'
tRp2462
((I1
(I15
tg14
I00
(lp2463
g578
ag2454
ag104
ag125
ag53
ag2455
ag2456
ag2457
ag16
ag2458
ag1211
ag69
ag2459
ag2460
ag2461
at(Nttba(lp2464
g10
(g22
(I0
tS'b'
tRp2465
(I1
(I15
I15
tg14
I00
(lp2466
F1
aF0.049751200000000002
aF0
aF0
aF0
aF0.063829800000000006
aF0.028089900000000001
aF0.070866100000000001
aF0.022222200000000001
aF0.0201005
aF0.83333299999999999
aF0.0625
aF1
aF0.063829800000000006
aF0.049751200000000002
aF0.049751200000000002
aF1
aF0
aF0.025125600000000001
aF0.0098522200000000001
aF0.55299500000000001
aF0.29370600000000002
aF0.59113300000000002
aF0.32028499999999999
aF0.31756800000000002
aF0.050251299999999999
aF0.043859599999999999
aF0.049751200000000002
aF0.567442
aF1
aF0
aF0
aF1
aF0
aF0
aF0
aF0
aF0
aF0
aF0
aF0
aF0
aF0
aF0
aF0
aF0
aF0.025125600000000001
aF0
aF1
aF0
aF0.036231899999999997
aF0
aF0.0403226
aF0.0056818199999999998
aF0.0051282100000000002
aF0
aF0
aF0
aF0.036231899999999997
aF0.025125600000000001
aF0
aF0.0098522200000000001
aF0
aF0
aF1
aF0
aF0.0056818199999999998
aF0
aF0.0113636
aF0.010256400000000001
aF0
aF0.125
aF0
aF0
aF0.0098522200000000001
aF0.063829800000000006
aF0.55299500000000001
aF0
aF0.036231899999999997
aF0
aF1
aF0.231076
aF0.89855099999999999
aF0.23505999999999999
aF0.22761200000000001
aF0.064748200000000006
aF0.0290698
aF0.063829800000000006
aF0.81578899999999999
aF0.55299500000000001
aF0.028089900000000001
aF0.29370600000000002
aF0
aF0
aF0.0056818199999999998
aF0.231076
aF1
aF0.22406599999999999
aF0.47210299999999999
aF0.42519699999999999
aF0.0284091
aF0.065989800000000001
aF0.028089900000000001
aF0.231076
aF0.29370600000000002
aF0.070866100000000001
aF0.59113300000000002
aF0
aF0.0403226
aF0
aF0.89855099999999999
aF0.22406599999999999
aF1
aF0.23849400000000001
aF0.23046900000000001
aF0.071999999999999995
aF0.031645600000000003
aF0.070866100000000001
aF0.89855099999999999
aF0.59113300000000002
aF0.022222200000000001
aF0.32028499999999999
aF0
aF0.0056818199999999998
aF0.0113636
aF0.23505999999999999
aF0.47210299999999999
aF0.23849400000000001
aF1
aF0.83333299999999999
aF0.0224719
aF0.087628899999999996
aF0.022222200000000001
aF0.25506099999999998
aF0.32028499999999999
aF0.0201005
aF0.31756800000000002
aF0
aF0.0051282100000000002
aF0.010256400000000001
aF0.22761200000000001
aF0.42519699999999999
aF0.23046900000000001
aF0.83333299999999999
aF1
aF0.020304599999999999
aF0.0798122
aF0.0201005
aF0.24621199999999999
aF0.31756800000000002
aF0.83333299999999999
aF0.050251299999999999
aF0
aF0
aF0
aF0.064748200000000006
aF0.0284091
aF0.071999999999999995
aF0.0224719
aF0.020304599999999999
aF1
aF0.065217399999999995
aF0.83333299999999999
aF0.064748200000000006
aF0.050251299999999999
aF0.0625
aF0.043859599999999999
aF0
aF0
aF0.125
aF0.0290698
aF0.065989800000000001
aF0.031645600000000003
aF0.087628899999999996
aF0.0798122
aF0.065217399999999995
aF1
aF0.0625
aF0.041176499999999998
aF0.043859599999999999
aF1
aF0.049751200000000002
aF0
aF0
aF0
aF0.063829800000000006
aF0.028089900000000001
aF0.070866100000000001
aF0.022222200000000001
aF0.0201005
aF0.83333299999999999
aF0.0625
aF1
aF0.063829800000000006
aF0.049751200000000002
aF0.063829800000000006
aF0.567442
aF0
aF0.036231899999999997
aF0
aF0.81578899999999999
aF0.231076
aF0.89855099999999999
aF0.25506099999999998
aF0.24621199999999999
aF0.064748200000000006
aF0.041176499999999998
aF0.063829800000000006
aF1
aF0.567442
aF0.049751200000000002
aF1
aF0
aF0.025125600000000001
aF0.0098522200000000001
aF0.55299500000000001
aF0.29370600000000002
aF0.59113300000000002
aF0.32028499999999999
aF0.31756800000000002
aF0.050251299999999999
aF0.043859599999999999
aF0.049751200000000002
aF0.567442
aF1
atba(lp2467
g10
(g11
(I0
tS'b'
tRp2468
((I1
(I15
tg14
I00
(lp2469
g578
ag2454
ag104
ag125
ag53
ag2455
ag2456
ag2457
ag16
ag2458
ag1211
ag69
ag2459
ag2460
ag2461
at(NttbatbbsS'FASC201ACP'
p2470
g3
(g4
g5
NtRp2471
g3
(g7
g5
NtRp2472
((lp2473
g10
(g11
(I0
tS'b'
tRp2474
((I1
(I5
tg14
I00
(lp2475
g578
ag141
ag125
ag53
ag252
at(Nttbag10
(g11
(I0
tS'b'
tRp2476
((I1
(I5
tg14
I00
(lp2477
g578
ag141
ag125
ag53
ag252
at(Nttba(lp2478
g10
(g22
(I0
tS'b'
tRp2479
(I1
(I5
I5
tg14
I00
(lp2480
F1
aF0.33333299999999999
aF0
aF0
aF0.054054100000000001
aF0.33333299999999999
aF1
aF0
aF0
aF0.0218579
aF0
aF0
aF1
aF0
aF0.0273224
aF0
aF0
aF0
aF1
aF0.0053191499999999999
aF0.054054100000000001
aF0.0218579
aF0.0273224
aF0.0053191499999999999
aF1
atba(lp2481
g10
(g11
(I0
tS'b'
tRp2482
((I1
(I5
tg14
I00
(lp2483
g578
ag141
ag125
ag53
ag252
at(NttbatbbsS'NTD6'
p2484
g3
(g4
g5
NtRp2485
g3
(g7
g5
NtRp2486
((lp2487
g10
(g11
(I0
tS'b'
tRp2488
((I1
(I6
tg14
I00
(lp2489
g68
ag69
ag70
ag71
ag72
ag53
at(Nttbag10
(g11
(I0
tS'b'
tRp2490
((I1
(I6
tg14
I00
(lp2491
g68
ag69
ag70
ag71
ag72
ag53
at(Nttba(lp2492
g10
(g22
(I0
tS'b'
tRp2493
(I1
(I6
I6
tg14
I00
(lp2494
F1
aF0
aF0
aF0
aF0
aF0
aF0
aF1
aF0
aF0
aF0
aF0.125
aF0
aF0
aF1
aF0
aF0
aF0
aF0
aF0
aF0
aF1
aF0
aF0
aF0
aF0
aF0
aF0
aF1
aF0
aF0
aF0.125
aF0
aF0
aF0
aF1
atba(lp2495
g10
(g11
(I0
tS'b'
tRp2496
((I1
(I6
tg14
I00
(lp2497
g68
ag69
ag70
ag71
ag72
ag53
at(NttbatbbsS'RPI'
p2498
g3
(g4
g5
NtRp2499
g3
(g7
g5
NtRp2500
((lp2501
g10
(g11
(I0
tS'b'
tRp2502
((I1
(I2
tg14
I00
(lp2503
g35
aS'OCS'
p2504
at(Nttbag10
(g11
(I0
tS'b'
tRp2505
((I1
(I2
tg14
I00
(lp2506
g35
ag2504
at(Nttba(lp2507
g10
(g22
(I0
tS'b'
tRp2508
(I1
(I2
I2
tg14
I00
(lp2509
F1
aF0.125
aF0.125
aF1
atba(lp2510
g10
(g11
(I0
tS'b'
tRp2511
((I1
(I2
tg14
I00
(lp2512
g35
ag2504
at(NttbatbbsS'DHFR'
p2513
g3
(g4
g5
NtRp2514
g3
(g7
g5
NtRp2515
((lp2516
g10
(g11
(I0
tS'b'
tRp2517
((I1
(I3
tg14
I00
(lp2518
S'MTX'
p2519
ag1024
ag53
at(Nttbag10
(g11
(I0
tS'b'
tRp2520
((I1
(I3
tg14
I00
(lp2521
g2519
ag1024
ag53
at(Nttba(lp2522
g10
(g22
(I0
tS'b'
tRp2523
(I1
(I3
I3
tg14
I00
(lp2524
F1
aF0.27118599999999998
aF0.0064102600000000001
aF0.27118599999999998
aF1
aF0.0043668099999999996
aF0.0064102600000000001
aF0.0043668099999999996
aF1
atba(lp2525
g10
(g11
(I0
tS'b'
tRp2526
((I1
(I3
tg14
I00
(lp2527
g2519
ag1024
ag53
at(NttbatbbsS'FRUK_r'
p2528
g3
(g4
g5
NtRp2529
g3
(g7
g5
NtRp2530
((lp2531
g10
(g11
(I0
tS'b'
tRp2532
((I1
(I2
tg14
I00
(lp2533
g34
ag72
at(Nttbag10
(g11
(I0
tS'b'
tRp2534
((I1
(I2
tg14
I00
(lp2535
g34
ag72
at(Nttba(lp2536
g10
(g22
(I0
tS'b'
tRp2537
(I1
(I2
I2
tg14
I00
(lp2538
F1
aF0
aF0
aF1
atba(lp2539
g10
(g11
(I0
tS'b'
tRp2540
((I1
(I2
tg14
I00
(lp2541
g34
ag72
at(NttbatbbsS'TRPTRS'
p2542
g3
(g4
g5
NtRp2543
g3
(g7
g5
NtRp2544
((lp2545
g10
(g11
(I0
tS'b'
tRp2546
((I1
(I1
tg14
I00
(lp2547
g429
at(Nttbag10
(g11
(I0
tS'b'
tRp2548
((I1
(I1
tg14
I00
(lp2549
g429
at(Nttba(lp2550
g10
(g22
(I0
tS'b'
tRp2551
(I1
(I1
I1
tg14
I00
(lp2552
F1
atba(lp2553
g10
(g11
(I0
tS'b'
tRp2554
((I1
(I1
tg14
I00
(lp2555
g429
at(NttbatbbsS'ALAabc'
p2556
g3
(g4
g5
NtRp2557
g3
(g7
g5
NtRp2558
((lp2559
g10
(g11
(I0
tS'b'
tRp2560
((I1
(I3
tg14
I00
(lp2561
g140
ag141
ag53
at(Nttbag10
(g11
(I0
tS'b'
tRp2562
((I1
(I3
tg14
I00
(lp2563
g140
ag141
ag53
at(Nttba(lp2564
g10
(g22
(I0
tS'b'
tRp2565
(I1
(I3
I3
tg14
I00
(lp2566
F1
aF0.025641000000000001
aF0.0062111800000000002
aF0.025641000000000001
aF1
aF0
aF0.0062111800000000002
aF0
aF1
atba(lp2567
g10
(g11
(I0
tS'b'
tRp2568
((I1
(I3
tg14
I00
(lp2569
g140
ag141
ag53
at(NttbatbbsS'NTD8'
p2570
g3
(g4
g5
NtRp2571
g3
(g7
g5
NtRp2572
((lp2573
g10
(g11
(I0
tS'b'
tRp2574
((I1
(I6
tg14
I00
(lp2575
g68
ag69
ag70
ag71
ag72
ag53
at(Nttbag10
(g11
(I0
tS'b'
tRp2576
((I1
(I6
tg14
I00
(lp2577
g68
ag69
ag70
ag71
ag72
ag53
at(Nttba(lp2578
g10
(g22
(I0
tS'b'
tRp2579
(I1
(I6
I6
tg14
I00
(lp2580
F1
aF0
aF0
aF0
aF0
aF0
aF0
aF1
aF0
aF0
aF0
aF0.125
aF0
aF0
aF1
aF0
aF0
aF0
aF0
aF0
aF0
aF1
aF0
aF0
aF0
aF0
aF0
aF0
aF1
aF0
aF0
aF0.125
aF0
aF0
aF0
aF1
atba(lp2581
g10
(g11
(I0
tS'b'
tRp2582
((I1
(I6
tg14
I00
(lp2583
g68
ag69
ag70
ag71
ag72
ag53
at(NttbatbbsS'NTD9'
p2584
g3
(g4
g5
NtRp2585
g3
(g7
g5
NtRp2586
((lp2587
g10
(g11
(I0
tS'b'
tRp2588
((I1
(I6
tg14
I00
(lp2589
g68
ag69
ag70
ag71
ag72
ag53
at(Nttbag10
(g11
(I0
tS'b'
tRp2590
((I1
(I6
tg14
I00
(lp2591
g68
ag69
ag70
ag71
ag72
ag53
at(Nttba(lp2592
g10
(g22
(I0
tS'b'
tRp2593
(I1
(I6
I6
tg14
I00
(lp2594
F1
aF0
aF0
aF0
aF0
aF0
aF0
aF1
aF0
aF0
aF0
aF0.125
aF0
aF0
aF1
aF0
aF0
aF0
aF0
aF0
aF0
aF1
aF0
aF0
aF0
aF0
aF0
aF0
aF1
aF0
aF0
aF0.125
aF0
aF0
aF0
aF1
atba(lp2595
g10
(g11
(I0
tS'b'
tRp2596
((I1
(I6
tg14
I00
(lp2597
g68
ag69
ag70
ag71
ag72
ag53
at(NttbatbbsS'OCBT'
p2598
g3
(g4
g5
NtRp2599
g3
(g7
g5
NtRp2600
((lp2601
g10
(g11
(I0
tS'b'
tRp2602
((I1
(I1
tg14
I00
(lp2603
g125
at(Nttbag10
(g11
(I0
tS'b'
tRp2604
((I1
(I1
tg14
I00
(lp2605
g125
at(Nttba(lp2606
g10
(g22
(I0
tS'b'
tRp2607
(I1
(I1
I1
tg14
I00
(lp2608
F1
atba(lp2609
g10
(g11
(I0
tS'b'
tRp2610
((I1
(I1
tg14
I00
(lp2611
g125
at(NttbatbbsS'NTD7'
p2612
g3
(g4
g5
NtRp2613
g3
(g7
g5
NtRp2614
((lp2615
g10
(g11
(I0
tS'b'
tRp2616
((I1
(I6
tg14
I00
(lp2617
g68
ag69
ag70
ag71
ag72
ag53
at(Nttbag10
(g11
(I0
tS'b'
tRp2618
((I1
(I6
tg14
I00
(lp2619
g68
ag69
ag70
ag71
ag72
ag53
at(Nttba(lp2620
g10
(g22
(I0
tS'b'
tRp2621
(I1
(I6
I6
tg14
I00
(lp2622
F1
aF0
aF0
aF0
aF0
aF0
aF0
aF1
aF0
aF0
aF0
aF0.125
aF0
aF0
aF1
aF0
aF0
aF0
aF0
aF0
aF0
aF1
aF0
aF0
aF0
aF0
aF0
aF0
aF1
aF0
aF0
aF0.125
aF0
aF0
aF0
aF1
atba(lp2623
g10
(g11
(I0
tS'b'
tRp2624
((I1
(I6
tg14
I00
(lp2625
g68
ag69
ag70
ag71
ag72
ag53
at(NttbatbbsS'NTD4'
p2626
g3
(g4
g5
NtRp2627
g3
(g7
g5
NtRp2628
((lp2629
g10
(g11
(I0
tS'b'
tRp2630
((I1
(I6
tg14
I00
(lp2631
g68
ag69
ag70
ag71
ag72
ag53
at(Nttbag10
(g11
(I0
tS'b'
tRp2632
((I1
(I6
tg14
I00
(lp2633
g68
ag69
ag70
ag71
ag72
ag53
at(Nttba(lp2634
g10
(g22
(I0
tS'b'
tRp2635
(I1
(I6
I6
tg14
I00
(lp2636
F1
aF0
aF0
aF0
aF0
aF0
aF0
aF1
aF0
aF0
aF0
aF0.125
aF0
aF0
aF1
aF0
aF0
aF0
aF0
aF0
aF0
aF1
aF0
aF0
aF0
aF0
aF0
aF0
aF1
aF0
aF0
aF0.125
aF0
aF0
aF0
aF1
atba(lp2637
g10
(g11
(I0
tS'b'
tRp2638
((I1
(I6
tg14
I00
(lp2639
g68
ag69
ag70
ag71
ag72
ag53
at(NttbatbbsS'NTD5'
p2640
g3
(g4
g5
NtRp2641
g3
(g7
g5
NtRp2642
((lp2643
g10
(g11
(I0
tS'b'
tRp2644
((I1
(I6
tg14
I00
(lp2645
g68
ag69
ag70
ag71
ag72
ag53
at(Nttbag10
(g11
(I0
tS'b'
tRp2646
((I1
(I6
tg14
I00
(lp2647
g68
ag69
ag70
ag71
ag72
ag53
at(Nttba(lp2648
g10
(g22
(I0
tS'b'
tRp2649
(I1
(I6
I6
tg14
I00
(lp2650
F1
aF0
aF0
aF0
aF0
aF0
aF0
aF1
aF0
aF0
aF0
aF0.125
aF0
aF0
aF1
aF0
aF0
aF0
aF0
aF0
aF0
aF1
aF0
aF0
aF0
aF0
aF0
aF0
aF1
aF0
aF0
aF0.125
aF0
aF0
aF0
aF1
atba(lp2651
g10
(g11
(I0
tS'b'
tRp2652
((I1
(I6
tg14
I00
(lp2653
g68
ag69
ag70
ag71
ag72
ag53
at(NttbatbbsS'NTD2'
p2654
g3
(g4
g5
NtRp2655
g3
(g7
g5
NtRp2656
((lp2657
g10
(g11
(I0
tS'b'
tRp2658
((I1
(I6
tg14
I00
(lp2659
g68
ag69
ag70
ag71
ag72
ag53
at(Nttbag10
(g11
(I0
tS'b'
tRp2660
((I1
(I6
tg14
I00
(lp2661
g68
ag69
ag70
ag71
ag72
ag53
at(Nttba(lp2662
g10
(g22
(I0
tS'b'
tRp2663
(I1
(I6
I6
tg14
I00
(lp2664
F1
aF0
aF0
aF0
aF0
aF0
aF0
aF1
aF0
aF0
aF0
aF0.125
aF0
aF0
aF1
aF0
aF0
aF0
aF0
aF0
aF0
aF1
aF0
aF0
aF0
aF0
aF0
aF0
aF1
aF0
aF0
aF0.125
aF0
aF0
aF0
aF1
atba(lp2665
g10
(g11
(I0
tS'b'
tRp2666
((I1
(I6
tg14
I00
(lp2667
g68
ag69
ag70
ag71
ag72
ag53
at(NttbatbbsS'NTD3'
p2668
g3
(g4
g5
NtRp2669
g3
(g7
g5
NtRp2670
((lp2671
g10
(g11
(I0
tS'b'
tRp2672
((I1
(I6
tg14
I00
(lp2673
g68
ag69
ag70
ag71
ag72
ag53
at(Nttbag10
(g11
(I0
tS'b'
tRp2674
((I1
(I6
tg14
I00
(lp2675
g68
ag69
ag70
ag71
ag72
ag53
at(Nttba(lp2676
g10
(g22
(I0
tS'b'
tRp2677
(I1
(I6
I6
tg14
I00
(lp2678
F1
aF0
aF0
aF0
aF0
aF0
aF0
aF1
aF0
aF0
aF0
aF0.125
aF0
aF0
aF1
aF0
aF0
aF0
aF0
aF0
aF0
aF1
aF0
aF0
aF0
aF0
aF0
aF0
aF1
aF0
aF0
aF0.125
aF0
aF0
aF0
aF1
atba(lp2679
g10
(g11
(I0
tS'b'
tRp2680
((I1
(I6
tg14
I00
(lp2681
g68
ag69
ag70
ag71
ag72
ag53
at(NttbatbbsS'PTPAT'
p2682
g3
(g4
g5
NtRp2683
g3
(g7
g5
NtRp2684
((lp2685
g10
(g11
(I0
tS'b'
tRp2686
((I1
(I2
tg14
I00
(lp2687
g35
aS'PNS'
p2688
at(Nttbag10
(g11
(I0
tS'b'
tRp2689
((I1
(I2
tg14
I00
(lp2690
g35
ag2688
at(Nttba(lp2691
g10
(g22
(I0
tS'b'
tRp2692
(I1
(I2
I2
tg14
I00
(lp2693
F1
aF0.108108
aF0.108108
aF1
atba(lp2694
g10
(g11
(I0
tS'b'
tRp2695
((I1
(I2
tg14
I00
(lp2696
g35
ag2688
at(NttbatbbsS'NTD1'
p2697
g3
(g4
g5
NtRp2698
g3
(g7
g5
NtRp2699
((lp2700
g10
(g11
(I0
tS'b'
tRp2701
((I1
(I6
tg14
I00
(lp2702
g68
ag69
ag70
ag71
ag72
ag53
at(Nttbag10
(g11
(I0
tS'b'
tRp2703
((I1
(I6
tg14
I00
(lp2704
g68
ag69
ag70
ag71
ag72
ag53
at(Nttba(lp2705
g10
(g22
(I0
tS'b'
tRp2706
(I1
(I6
I6
tg14
I00
(lp2707
F1
aF0
aF0
aF0
aF0
aF0
aF0
aF1
aF0
aF0
aF0
aF0.125
aF0
aF0
aF1
aF0
aF0
aF0
aF0
aF0
aF0
aF1
aF0
aF0
aF0
aF0
aF0
aF0
aF1
aF0
aF0
aF0.125
aF0
aF0
aF0
aF1
atba(lp2708
g10
(g11
(I0
tS'b'
tRp2709
((I1
(I6
tg14
I00
(lp2710
g68
ag69
ag70
ag71
ag72
ag53
at(NttbatbbsS'DPCOAK'
p2711
g3
(g4
g5
NtRp2712
g3
(g7
g5
NtRp2713
((lp2714
g10
(g11
(I0
tS'b'
tRp2715
((I1
(I3
tg14
I00
(lp2716
g52
ag104
aS'COD'
p2717
at(Nttbag10
(g11
(I0
tS'b'
tRp2718
((I1
(I3
tg14
I00
(lp2719
g52
ag104
ag2717
at(Nttba(lp2720
g10
(g22
(I0
tS'b'
tRp2721
(I1
(I3
I3
tg14
I00
(lp2722
F1
aF0
aF0.82320400000000005
aF0
aF1
aF0
aF0.82320400000000005
aF0
aF1
atba(lp2723
g10
(g11
(I0
tS'b'
tRp2724
((I1
(I3
tg14
I00
(lp2725
g52
ag104
ag2717
at(NttbatbbsS'G3PD1'
p2726
g3
(g4
g5
NtRp2727
g3
(g7
g5
NtRp2728
((lp2729
g10
(g11
(I0
tS'b'
tRp2730
((I1
(I5
tg14
I00
(lp2731
S'G3H'
p2732
aS'G3P'
p2733
ag35
aS'MRD'
p2734
ag1024
at(Nttbag10
(g11
(I0
tS'b'
tRp2735
((I1
(I5
tg14
I00
(lp2736
g2732
ag2733
ag35
ag2734
ag1024
at(Nttba(lp2737
g10
(g22
(I0
tS'b'
tRp2738
(I1
(I5
I5
tg14
I00
(lp2739
F1
aF0.65714300000000003
aF0.14285700000000001
aF0.14285700000000001
aF0.113537
aF0.65714300000000003
aF1
aF0.20000000000000001
aF0.20000000000000001
aF0.120536
aF0.14285700000000001
aF0.20000000000000001
aF1
aF1
aF0.040178600000000002
aF0.14285700000000001
aF0.20000000000000001
aF1
aF1
aF0.040178600000000002
aF0.113537
aF0.120536
aF0.040178600000000002
aF0.040178600000000002
aF1
atba(lp2740
g10
(g11
(I0
tS'b'
tRp2741
((I1
(I5
tg14
I00
(lp2742
g2732
ag2733
ag35
ag2734
ag1024
at(NttbatbbsS'DTMPK'
p2743
g3
(g4
g5
NtRp2744
g3
(g7
g5
NtRp2745
((lp2746
g10
(g11
(I0
tS'b'
tRp2747
((I1
(I3
tg14
I00
(lp2748
g52
ag72
aS'TYD'
p2749
at(Nttbag10
(g11
(I0
tS'b'
tRp2750
((I1
(I3
tg14
I00
(lp2751
g52
ag72
ag2749
at(Nttba(lp2752
g10
(g22
(I0
tS'b'
tRp2753
(I1
(I3
I3
tg14
I00
(lp2754
F1
aF0
aF0.64606699999999995
aF0
aF1
aF0
aF0.64606699999999995
aF0
aF1
atba(lp2755
g10
(g11
(I0
tS'b'
tRp2756
((I1
(I3
tg14
I00
(lp2757
g52
ag72
ag2749
at(NttbatbbsS'FUCASE2'
p2758
g3
(g4
g5
NtRp2759
g3
(g7
g5
NtRp2760
((lp2761
g10
(g11
(I0
tS'b'
tRp2762
((I1
(I14
tg14
I00
(lp2763
g491
ag492
ag493
ag494
ag495
ag496
ag497
ag498
ag499
ag500
ag501
ag502
ag503
ag504
at(Nttbag10
(g11
(I0
tS'b'
tRp2764
((I1
(I14
tg14
I00
(lp2765
g491
ag492
ag493
ag494
ag495
ag496
ag497
ag498
ag499
ag500
ag501
ag502
ag503
ag504
at(Nttba(lp2766
g10
(g22
(I0
tS'b'
tRp2767
(I1
(I14
I14
tg14
I00
(lp2768
F1
aF0.381579
aF0.70588200000000001
aF0.16176499999999999
aF1
aF0.17647099999999999
aF0.110294
aF0.109489
aF0.100719
aF0.097222199999999995
aF0.122807
aF0.148148
aF0.170455
aF0.206349
aF0.381579
aF1
aF0.31111100000000003
aF0.208791
aF0.381579
aF0.32142900000000002
aF0.18954199999999999
aF0.18831200000000001
aF0.18709700000000001
aF0.18124999999999999
aF0.223077
aF0.27835100000000002
aF0.26415100000000002
aF0.320988
aF0.70588200000000001
aF0.31111100000000003
aF1
aF0.19480500000000001
aF0.70588200000000001
aF0.19230800000000001
aF0.15493000000000001
aF0.14583299999999999
aF0.12925200000000001
aF0.125
aF0.17499999999999999
aF0.17777799999999999
aF0.221053
aF0.21917800000000001
aF0.16176499999999999
aF0.208791
aF0.19480500000000001
aF1
aF0.16176499999999999
aF0.328125
aF0.248
aF0.23622000000000001
aF0.234375
aF0.26356600000000002
aF0.33000000000000002
aF0.42029
aF0.25581399999999999
aF0.37288100000000002
aF1
aF0.381579
aF0.70588200000000001
aF0.16176499999999999
aF1
aF0.17647099999999999
aF0.110294
aF0.109489
aF0.100719
aF0.097222199999999995
aF0.122807
aF0.148148
aF0.170455
aF0.206349
aF0.17647099999999999
aF0.32142900000000002
aF0.19230800000000001
aF0.328125
aF0.17647099999999999
aF1
aF0.377193
aF0.373913
aF0.37069000000000002
aF0.35537200000000002
aF0.47252699999999997
aF0.76785700000000001
aF0.51388900000000004
aF0.82222200000000001
aF0.110294
aF0.18954199999999999
aF0.15493000000000001
aF0.248
aF0.110294
aF0.377193
aF1
aF0.78906200000000004
aF0.58620700000000003
aF0.46875
aF0.61417299999999997
aF0.491228
aF0.46341500000000002
aF0.33043499999999998
aF0.109489
aF0.18831200000000001
aF0.14583299999999999
aF0.23622000000000001
aF0.109489
aF0.373913
aF0.78906200000000004
aF1
aF0.59310300000000005
aF0.45678999999999997
aF0.64800000000000002
aF0.48695699999999997
aF0.47154499999999999
aF0.32758599999999999
aF0.100719
aF0.18709700000000001
aF0.12925200000000001
aF0.234375
aF0.100719
aF0.37069000000000002
aF0.58620700000000003
aF0.59310300000000005
aF1
aF0.53896100000000002
aF0.489209
aF0.48275899999999999
aF0.368421
aF0.31355899999999998
aF0.097222199999999995
aF0.18124999999999999
aF0.125
aF0.26356600000000002
aF0.097222199999999995
aF0.35537200000000002
aF0.46875
aF0.45678999999999997
aF0.53896100000000002
aF1
aF0.51428600000000002
aF0.46281
aF0.34532400000000002
aF0.300813
aF0.122807
aF0.223077
aF0.17499999999999999
aF0.33000000000000002
aF0.122807
aF0.47252699999999997
aF0.61417299999999997
aF0.64800000000000002
aF0.489209
aF0.51428600000000002
aF1
aF0.61538499999999996
aF0.68817200000000001
aF0.41304299999999999
aF0.148148
aF0.27835100000000002
aF0.17777799999999999
aF0.42029
aF0.148148
aF0.76785700000000001
aF0.491228
aF0.48695699999999997
aF0.48275899999999999
aF0.46281
aF0.61538499999999996
aF1
aF0.43529400000000001
aF0.63793100000000003
aF0.170455
aF0.26415100000000002
aF0.221053
aF0.25581399999999999
aF0.170455
aF0.51388900000000004
aF0.46341500000000002
aF0.47154499999999999
aF0.368421
aF0.34532400000000002
aF0.68817200000000001
aF0.43529400000000001
aF1
aF0.59090900000000002
aF0.206349
aF0.320988
aF0.21917800000000001
aF0.37288100000000002
aF0.206349
aF0.82222200000000001
aF0.33043499999999998
aF0.32758599999999999
aF0.31355899999999998
aF0.300813
aF0.41304299999999999
aF0.63793100000000003
aF0.59090900000000002
aF1
atba(lp2769
g10
(g11
(I0
tS'b'
tRp2770
((I1
(I14
tg14
I00
(lp2771
g491
ag492
ag493
ag494
ag495
ag496
ag497
ag498
ag499
ag500
ag501
ag502
ag503
ag504
at(NttbatbbsS'FASC140ACP'
p2772
g3
(g4
g5
NtRp2773
g3
(g7
g5
NtRp2774
((lp2775
g10
(g11
(I0
tS'b'
tRp2776
((I1
(I5
tg14
I00
(lp2777
g578
ag141
ag125
ag53
ag252
at(Nttbag10
(g11
(I0
tS'b'
tRp2778
((I1
(I5
tg14
I00
(lp2779
g578
ag141
ag125
ag53
ag252
at(Nttba(lp2780
g10
(g22
(I0
tS'b'
tRp2781
(I1
(I5
I5
tg14
I00
(lp2782
F1
aF0.33333299999999999
aF0
aF0
aF0.054054100000000001
aF0.33333299999999999
aF1
aF0
aF0
aF0.0218579
aF0
aF0
aF1
aF0
aF0.0273224
aF0
aF0
aF0
aF1
aF0.0053191499999999999
aF0.054054100000000001
aF0.0218579
aF0.0273224
aF0.0053191499999999999
aF1
atba(lp2783
g10
(g11
(I0
tS'b'
tRp2784
((I1
(I5
tg14
I00
(lp2785
g578
ag141
ag125
ag53
ag252
at(NttbatbbsS'FASC161ACP'
p2786
g3
(g4
g5
NtRp2787
g3
(g7
g5
NtRp2788
((lp2789
g10
(g11
(I0
tS'b'
tRp2790
((I1
(I5
tg14
I00
(lp2791
g578
ag141
ag125
ag53
ag252
at(Nttbag10
(g11
(I0
tS'b'
tRp2792
((I1
(I5
tg14
I00
(lp2793
g578
ag141
ag125
ag53
ag252
at(Nttba(lp2794
g10
(g22
(I0
tS'b'
tRp2795
(I1
(I5
I5
tg14
I00
(lp2796
F1
aF0.33333299999999999
aF0
aF0
aF0.054054100000000001
aF0.33333299999999999
aF1
aF0
aF0
aF0.0218579
aF0
aF0
aF1
aF0
aF0.0273224
aF0
aF0
aF0
aF1
aF0.0053191499999999999
aF0.054054100000000001
aF0.0218579
aF0.0273224
aF0.0053191499999999999
aF1
atba(lp2797
g10
(g11
(I0
tS'b'
tRp2798
((I1
(I5
tg14
I00
(lp2799
g578
ag141
ag125
ag53
ag252
at(NttbatbbsS'ASPO1_TM'
p2800
g3
(g4
g5
NtRp2801
g3
(g7
g5
NtRp2802
((lp2803
g10
(g11
(I0
tS'b'
tRp2804
((I1
(I1
tg14
I00
(lp2805
g252
at(Nttbag10
(g11
(I0
tS'b'
tRp2806
((I1
(I1
tg14
I00
(lp2807
g252
at(Nttba(lp2808
g10
(g22
(I0
tS'b'
tRp2809
(I1
(I1
I1
tg14
I00
(lp2810
F1
atba(lp2811
g10
(g11
(I0
tS'b'
tRp2812
((I1
(I1
tg14
I00
(lp2813
g252
at(NttbatbbsS'MGSA'
p2814
g3
(g4
g5
NtRp2815
g3
(g7
g5
NtRp2816
((lp2817
g10
(g11
(I0
tS'b'
tRp2818
((I1
(I2
tg14
I00
(lp2819
g104
ag53
at(Nttbag10
(g11
(I0
tS'b'
tRp2820
((I1
(I2
tg14
I00
(lp2821
g104
ag53
at(Nttba(lp2822
g10
(g22
(I0
tS'b'
tRp2823
(I1
(I2
I2
tg14
I00
(lp2824
F1
aF0
aF0
aF1
atba(lp2825
g10
(g11
(I0
tS'b'
tRp2826
((I1
(I2
tg14
I00
(lp2827
g104
ag53
at(NttbatbbsS'FE3abc'
p2828
g3
(g4
g5
NtRp2829
g3
(g7
g5
NtRp2830
((lp2831
g10
(g11
(I0
tS'b'
tRp2832
((I1
(I5
tg14
I00
(lp2833
g104
ag141
ag1182
ag221
ag125
at(Nttbag10
(g11
(I0
tS'b'
tRp2834
((I1
(I5
tg14
I00
(lp2835
g104
ag141
ag1182
ag221
ag125
at(Nttba(lp2836
g10
(g22
(I0
tS'b'
tRp2837
(I1
(I5
I5
tg14
I00
(lp2838
F1
aF0
aF0
aF0
aF0
aF0
aF1
aF0.090909100000000007
aF0
aF0
aF0
aF0.090909100000000007
aF1
aF0
aF0
aF0
aF0
aF0
aF1
aF0
aF0
aF0
aF0
aF0
aF1
atba(lp2839
g10
(g11
(I0
tS'b'
tRp2840
((I1
(I5
tg14
I00
(lp2841
g104
ag141
ag1182
ag221
ag125
at(NttbatbbsS'ACHBS'
p2842
g3
(g4
g5
NtRp2843
g3
(g7
g5
NtRp2844
((lp2845
g10
(g11
(I0
tS'b'
tRp2846
((I1
(I1
tg14
I00
(lp2847
g72
at(Nttbag10
(g11
(I0
tS'b'
tRp2848
((I1
(I1
tg14
I00
(lp2849
g72
at(Nttba(lp2850
g10
(g22
(I0
tS'b'
tRp2851
(I1
(I1
I1
tg14
I00
(lp2852
F1
atba(lp2853
g10
(g11
(I0
tS'b'
tRp2854
((I1
(I1
tg14
I00
(lp2855
g72
at(NttbatbbsS'PNP'
p2856
g3
(g4
g5
NtRp2857
g3
(g7
g5
NtRp2858
((lp2859
g10
(g11
(I0
tS'b'
tRp2860
((I1
(I2
tg14
I00
(lp2861
g1624
ag72
at(Nttbag10
(g11
(I0
tS'b'
tRp2862
((I1
(I2
tg14
I00
(lp2863
g1624
ag72
at(Nttba(lp2864
g10
(g22
(I0
tS'b'
tRp2865
(I1
(I2
I2
tg14
I00
(lp2866
F1
aF0
aF0
aF1
atba(lp2867
g10
(g11
(I0
tS'b'
tRp2868
((I1
(I2
tg14
I00
(lp2869
g1624
ag72
at(NttbatbbsS'FASC160ACP'
p2870
g3
(g4
g5
NtRp2871
g3
(g7
g5
NtRp2872
((lp2873
g10
(g11
(I0
tS'b'
tRp2874
((I1
(I5
tg14
I00
(lp2875
g578
ag141
ag125
ag53
ag252
at(Nttbag10
(g11
(I0
tS'b'
tRp2876
((I1
(I5
tg14
I00
(lp2877
g578
ag141
ag125
ag53
ag252
at(Nttba(lp2878
g10
(g22
(I0
tS'b'
tRp2879
(I1
(I5
I5
tg14
I00
(lp2880
F1
aF0.33333299999999999
aF0
aF0
aF0.054054100000000001
aF0.33333299999999999
aF1
aF0
aF0
aF0.0218579
aF0
aF0
aF1
aF0
aF0.0273224
aF0
aF0
aF0
aF1
aF0.0053191499999999999
aF0.054054100000000001
aF0.0218579
aF0.0273224
aF0.0053191499999999999
aF1
atba(lp2881
g10
(g11
(I0
tS'b'
tRp2882
((I1
(I5
tg14
I00
(lp2883
g578
ag141
ag125
ag53
ag252
at(NttbatbbsS'LMNe'
p2884
g3
(g4
g5
NtRp2885
g3
(g7
g5
NtRp2886
((lp2887
g10
(g11
(I0
tS'b'
tRp2888
((I1
(I7
tg14
I00
(lp2889
g979
ag68
ag215
ag103
ag104
ag53
ag980
at(Nttbag10
(g11
(I0
tS'b'
tRp2890
((I1
(I7
tg14
I00
(lp2891
g979
ag68
ag215
ag103
ag104
ag53
ag980
at(Nttba(lp2892
g10
(g22
(I0
tS'b'
tRp2893
(I1
(I7
I7
tg14
I00
(lp2894
F1
aF0
aF0.10204100000000001
aF0.090909100000000007
aF0
aF0
aF0.084745799999999996
aF0
aF1
aF0
aF0
aF0
aF0
aF0
aF0.10204100000000001
aF0
aF1
aF0.189189
aF0
aF0
aF0.55555600000000005
aF0.090909100000000007
aF0
aF0.189189
aF1
aF0
aF0
aF0.14893600000000001
aF0
aF0
aF0
aF0
aF1
aF0
aF0
aF0
aF0
aF0
aF0
aF0
aF1
aF0
aF0.084745799999999996
aF0
aF0.55555600000000005
aF0.14893600000000001
aF0
aF0
aF1
atba(lp2895
g10
(g11
(I0
tS'b'
tRp2896
((I1
(I7
tg14
I00
(lp2897
g979
ag68
ag215
ag103
ag104
ag53
ag980
at(NttbatbbsS'MELIBabc'
p2898
g3
(g4
g5
NtRp2899
g3
(g7
g5
NtRp2900
((lp2901
g10
(g11
(I0
tS'b'
tRp2902
((I1
(I1
tg14
I00
(lp2903
g358
at(Nttbag10
(g11
(I0
tS'b'
tRp2904
((I1
(I1
tg14
I00
(lp2905
g358
at(Nttba(lp2906
g10
(g22
(I0
tS'b'
tRp2907
(I1
(I1
I1
tg14
I00
(lp2908
F1
atba(lp2909
g10
(g11
(I0
tS'b'
tRp2910
((I1
(I1
tg14
I00
(lp2911
g358
at(NttbatbbsS'ADSL1r'
p2912
g3
(g4
g5
NtRp2913
g3
(g7
g5
NtRp2914
((lp2915
g10
(g11
(I0
tS'b'
tRp2916
((I1
(I1
tg14
I00
(lp2917
g53
at(Nttbag10
(g11
(I0
tS'b'
tRp2918
((I1
(I1
tg14
I00
(lp2919
g53
at(Nttba(lp2920
g10
(g22
(I0
tS'b'
tRp2921
(I1
(I1
I1
tg14
I00
(lp2922
F1
atba(lp2923
g10
(g11
(I0
tS'b'
tRp2924
((I1
(I1
tg14
I00
(lp2925
g53
at(NttbatbbsS'ACCOAC'
p2926
g3
(g4
g5
NtRp2927
g3
(g7
g5
NtRp2928
((lp2929
g10
(g11
(I0
tS'b'
tRp2930
((I1
(I2
tg14
I00
(lp2931
g995
ag72
at(Nttbag10
(g11
(I0
tS'b'
tRp2932
((I1
(I2
tg14
I00
(lp2933
g995
ag72
at(Nttba(lp2934
g10
(g22
(I0
tS'b'
tRp2935
(I1
(I2
I2
tg14
I00
(lp2936
F1
aF0
aF0
aF1
atba(lp2937
g10
(g11
(I0
tS'b'
tRp2938
((I1
(I2
tg14
I00
(lp2939
g995
ag72
at(NttbatbbsS'MALT'
p2940
g3
(g4
g5
NtRp2941
g3
(g7
g5
NtRp2942
((lp2943
g10
(g11
(I0
tS'b'
tRp2944
((I1
(I3
tg14
I00
(lp2945
g102
aS'MAL'
p2946
ag252
at(Nttbag10
(g11
(I0
tS'b'
tRp2947
((I1
(I3
tg14
I00
(lp2948
g102
ag2946
ag252
at(Nttba(lp2949
g10
(g22
(I0
tS'b'
tRp2950
(I1
(I3
I3
tg14
I00
(lp2951
F1
aF0.064935099999999996
aF0.058252400000000003
aF0.064935099999999996
aF1
aF0.14999999999999999
aF0.058252400000000003
aF0.14999999999999999
aF1
atba(lp2952
g10
(g11
(I0
tS'b'
tRp2953
((I1
(I3
tg14
I00
(lp2954
g102
ag2946
ag252
at(NttbatbbsS'CYSS'
p2955
g3
(g4
g5
NtRp2956
g3
(g7
g5
NtRp2957
((lp2958
g10
(g11
(I0
tS'b'
tRp2959
((I1
(I1
tg14
I00
(lp2960
g125
at(Nttbag10
(g11
(I0
tS'b'
tRp2961
((I1
(I1
tg14
I00
(lp2962
g125
at(Nttba(lp2963
g10
(g22
(I0
tS'b'
tRp2964
(I1
(I1
I1
tg14
I00
(lp2965
F1
atba(lp2966
g10
(g11
(I0
tS'b'
tRp2967
((I1
(I1
tg14
I00
(lp2968
g125
at(Nttbatbbs.